TN:
SF:/usr/include/c++/11/ext/alloc_traits.h
FN:97,_ZN9__gnu_cxx14__alloc_traitsISaImEmE17_S_select_on_copyERKS1_
FNDA:12,_ZN9__gnu_cxx14__alloc_traitsISaImEmE17_S_select_on_copyERKS1_
FN:100,_ZN9__gnu_cxx14__alloc_traitsISaImEmE10_S_on_swapERS1_S3_
FNDA:1,_ZN9__gnu_cxx14__alloc_traitsISaImEmE10_S_on_swapERS1_S3_
FN:103,_ZN9__gnu_cxx14__alloc_traitsISaImEmE27_S_propagate_on_copy_assignEv
FNDA:1,_ZN9__gnu_cxx14__alloc_traitsISaImEmE27_S_propagate_on_copy_assignEv
FN:112,_ZN9__gnu_cxx14__alloc_traitsISaImEmE15_S_always_equalEv
FNDA:0,_ZN9__gnu_cxx14__alloc_traitsISaImEmE15_S_always_equalEv
DA:97,12
DA:98,12
DA:100,1
DA:101,1
DA:103,1
DA:104,1
DA:112,0
DA:113,0
end_of_record
SF:/usr/include/c++/11/new
FN:174,_ZnwmPv
FNDA:118,_ZnwmPv
DA:174,118
DA:175,118
end_of_record
SF:/usr/include/c++/11/bits/stl_iterator_base_types.h
FN:238,_ZSt19__iterator_categoryIPmENSt15iterator_traitsIT_E17iterator_categoryERKS2_
FNDA:72,_ZSt19__iterator_categoryIPmENSt15iterator_traitsIT_E17iterator_categoryERKS2_
DA:238,72
DA:239,72
end_of_record
SF:/usr/include/c++/11/bits/stl_algobase.h
FN:90,_ZSt8__memcmpImmEiPKT_PKT0_m
FNDA:2,_ZSt8__memcmpImmEiPKT_PKT0_m
FN:230,_ZSt3minImERKT_S2_S2_
FNDA:123,_ZSt3minImERKT_S2_S2_
FN:230,_ZSt3minIiERKT_S2_S2_
FNDA:0,_ZSt3minIiERKT_S2_S2_
FN:254,_ZSt3maxImERKT_S2_S2_
FNDA:24,_ZSt3maxImERKT_S2_S2_
FN:313,_ZSt12__niter_baseIPmET_S1_
FNDA:12,_ZSt12__niter_baseIPmET_S1_
FN:328,_ZSt12__niter_wrapIN9__gnu_cxx17__normal_iteratorIPmSt6vectorImSaImEEEES2_ET_S7_T0_
FNDA:1,_ZSt12__niter_wrapIN9__gnu_cxx17__normal_iteratorIPmSt6vectorImSaImEEEES2_ET_S7_T0_
FN:335,_ZSt12__niter_wrapIPmET_RKS1_S1_
FNDA:12,_ZSt12__niter_wrapIPmET_RKS1_S1_
FN:420,_ZNSt11__copy_moveILb1ELb1ESt26random_access_iterator_tagE8__copy_mImEEPT_PKS3_S6_S4_
FNDA:0,_ZNSt11__copy_moveILb1ELb1ESt26random_access_iterator_tagE8__copy_mImEEPT_PKS3_S6_S4_
FN:420,_ZNSt11__copy_moveILb0ELb1ESt26random_access_iterator_tagE8__copy_mImEEPT_PKS3_S6_S4_
FNDA:13,_ZNSt11__copy_moveILb0ELb1ESt26random_access_iterator_tagE8__copy_mImEEPT_PKS3_S6_S4_
FN:486,_ZSt14__copy_move_a2ILb1EPmS0_ET1_T0_S2_S1_
FNDA:0,_ZSt14__copy_move_a2ILb1EPmS0_ET1_T0_S2_S1_
FN:486,_ZSt14__copy_move_a2ILb0EPKmPmET1_T0_S4_S3_
FNDA:13,_ZSt14__copy_move_a2ILb0EPKmPmET1_T0_S4_S3_
FN:486,_ZSt14__copy_move_a2ILb0EPmS0_ET1_T0_S2_S1_
FNDA:0,_ZSt14__copy_move_a2ILb0EPmS0_ET1_T0_S2_S1_
FN:521,_ZSt14__copy_move_a1ILb1EPmS0_ET1_T0_S2_S1_
FNDA:0,_ZSt14__copy_move_a1ILb1EPmS0_ET1_T0_S2_S1_
FN:521,_ZSt14__copy_move_a1ILb0EPmS0_ET1_T0_S2_S1_
FNDA:0,_ZSt14__copy_move_a1ILb0EPmS0_ET1_T0_S2_S1_
FN:521,_ZSt14__copy_move_a1ILb0EPKmPmET1_T0_S4_S3_
FNDA:13,_ZSt14__copy_move_a1ILb0EPKmPmET1_T0_S4_S3_
FN:527,_ZSt13__copy_move_aILb0EN9__gnu_cxx17__normal_iteratorIPKmSt6vectorImSaImEEEEPmET1_T0_SA_S9_
FNDA:12,_ZSt13__copy_move_aILb0EN9__gnu_cxx17__normal_iteratorIPKmSt6vectorImSaImEEEEPmET1_T0_SA_S9_
FN:527,_ZSt13__copy_move_aILb1EPmS0_ET1_T0_S2_S1_
FNDA:0,_ZSt13__copy_move_aILb1EPmS0_ET1_T0_S2_S1_
FN:527,_ZSt13__copy_move_aILb0EPmS0_ET1_T0_S2_S1_
FNDA:0,_ZSt13__copy_move_aILb0EPmS0_ET1_T0_S2_S1_
FN:527,_ZSt13__copy_move_aILb0EN9__gnu_cxx17__normal_iteratorIPKmSt6vectorImSaImEEEENS1_IPmS6_EEET1_T0_SB_SA_
FNDA:1,_ZSt13__copy_move_aILb0EN9__gnu_cxx17__normal_iteratorIPKmSt6vectorImSaImEEEENS1_IPmS6_EEET1_T0_SB_SA_
FN:611,_ZSt4copyIN9__gnu_cxx17__normal_iteratorIPKmSt6vectorImSaImEEEEPmET0_T_SA_S9_
FNDA:12,_ZSt4copyIN9__gnu_cxx17__normal_iteratorIPKmSt6vectorImSaImEEEEPmET0_T_SA_S9_
FN:611,_ZSt4copyIPmS0_ET0_T_S2_S1_
FNDA:0,_ZSt4copyIPmS0_ET0_T_S2_S1_
FN:611,_ZSt4copyIN9__gnu_cxx17__normal_iteratorIPKmSt6vectorImSaImEEEENS1_IPmS6_EEET0_T_SB_SA_
FNDA:1,_ZSt4copyIN9__gnu_cxx17__normal_iteratorIPKmSt6vectorImSaImEEEENS1_IPmS6_EEET0_T_SB_SA_
FN:611,_ZSt4copyISt13move_iteratorIPmES1_ET0_T_S4_S3_
FNDA:0,_ZSt4copyISt13move_iteratorIPmES1_ET0_T_S4_S3_
FN:731,_ZNSt20__copy_move_backwardILb1ELb1ESt26random_access_iterator_tagE13__copy_move_bImEEPT_PKS3_S6_S4_
FNDA:0,_ZNSt20__copy_move_backwardILb1ELb1ESt26random_access_iterator_tagE13__copy_move_bImEEPT_PKS3_S6_S4_
FN:750,_ZSt23__copy_move_backward_a2ILb1EPmS0_ET1_T0_S2_S1_
FNDA:0,_ZSt23__copy_move_backward_a2ILb1EPmS0_ET1_T0_S2_S1_
FN:768,_ZSt23__copy_move_backward_a1ILb1EPmS0_ET1_T0_S2_S1_
FNDA:0,_ZSt23__copy_move_backward_a1ILb1EPmS0_ET1_T0_S2_S1_
FN:796,_ZSt22__copy_move_backward_aILb1EPmS0_ET1_T0_S2_S1_
FNDA:0,_ZSt22__copy_move_backward_aILb1EPmS0_ET1_T0_S2_S1_
FN:884,_ZSt13move_backwardIPmS0_ET0_T_S2_S1_
FNDA:0,_ZSt13move_backwardIPmS0_ET0_T_S2_S1_
FN:919,_ZSt9__fill_a1IPmmEN9__gnu_cxx11__enable_ifIXsrSt11__is_scalarIT0_E7__valueEvE6__typeET_S8_RKS4_
FNDA:74,_ZSt9__fill_a1IPmmEN9__gnu_cxx11__enable_ifIXsrSt11__is_scalarIT0_E7__valueEvE6__typeET_S8_RKS4_
FN:919,_ZSt9__fill_a1IPmiEN9__gnu_cxx11__enable_ifIXsrSt11__is_scalarIT0_E7__valueEvE6__typeET_S8_RKS4_
FNDA:1,_ZSt9__fill_a1IPmiEN9__gnu_cxx11__enable_ifIXsrSt11__is_scalarIT0_E7__valueEvE6__typeET_S8_RKS4_
FN:950,_ZSt9__fill_a1IPmSt6vectorImSaImEEiEvN9__gnu_cxx17__normal_iteratorIT_T0_EES8_RKT1_
FNDA:1,_ZSt9__fill_a1IPmSt6vectorImSaImEEiEvN9__gnu_cxx17__normal_iteratorIT_T0_EES8_RKT1_
FN:950,_ZSt9__fill_a1IPmSt6vectorImSaImEEmEvN9__gnu_cxx17__normal_iteratorIT_T0_EES8_RKT1_
FNDA:3,_ZSt9__fill_a1IPmSt6vectorImSaImEEmEvN9__gnu_cxx17__normal_iteratorIT_T0_EES8_RKT1_
FN:968,_ZSt8__fill_aIN9__gnu_cxx17__normal_iteratorIPmSt6vectorImSaImEEEEiEvT_S7_RKT0_
FNDA:1,_ZSt8__fill_aIN9__gnu_cxx17__normal_iteratorIPmSt6vectorImSaImEEEEiEvT_S7_RKT0_
FN:968,_ZSt8__fill_aIN9__gnu_cxx17__normal_iteratorIPmSt6vectorImSaImEEEEmEvT_S7_RKT0_
FNDA:3,_ZSt8__fill_aIN9__gnu_cxx17__normal_iteratorIPmSt6vectorImSaImEEEEmEvT_S7_RKT0_
FN:968,_ZSt8__fill_aIPmmEvT_S1_RKT0_
FNDA:71,_ZSt8__fill_aIPmmEvT_S1_RKT0_
FN:992,_ZSt4fillIPmmEvT_S1_RKT0_
FNDA:0,_ZSt4fillIPmmEvT_S1_RKT0_
FN:992,_ZSt4fillIN9__gnu_cxx17__normal_iteratorIPmSt6vectorImSaImEEEEiEvT_S7_RKT0_
FNDA:1,_ZSt4fillIN9__gnu_cxx17__normal_iteratorIPmSt6vectorImSaImEEEEiEvT_S7_RKT0_
FN:992,_ZSt4fillIN9__gnu_cxx17__normal_iteratorIPmSt6vectorImSaImEEEEmEvT_S7_RKT0_
FNDA:3,_ZSt4fillIN9__gnu_cxx17__normal_iteratorIPmSt6vectorImSaImEEEEmEvT_S7_RKT0_
FN:1010,_ZSt17__size_to_integerm
FNDA:72,_ZSt17__size_to_integerm
FN:1109,_ZSt10__fill_n_aIPmmmET_S1_T0_RKT1_St26random_access_iterator_tag
FNDA:72,_ZSt10__fill_n_aIPmmmET_S1_T0_RKT1_St26random_access_iterator_tag
FN:1144,_ZSt6fill_nIPmmmET_S1_T0_RKT1_
FNDA:72,_ZSt6fill_nIPmmmET_S1_T0_RKT1_
FN:1174,_ZNSt7__equalILb1EE5equalImEEbPKT_S4_S4_
FNDA:2,_ZNSt7__equalILb1EE5equalImEEbPKT_S4_S4_
FN:1205,_ZSt12__equal_aux1IPKmS1_EbT_S2_T0_
FNDA:2,_ZSt12__equal_aux1IPKmS1_EbT_S2_T0_
FN:1217,_ZSt11__equal_auxIN9__gnu_cxx17__normal_iteratorIPKmSt6vectorImSaImEEEES7_EbT_S8_T0_
FNDA:2,_ZSt11__equal_auxIN9__gnu_cxx17__normal_iteratorIPKmSt6vectorImSaImEEEES7_EbT_S8_T0_
FN:1546,_ZSt5equalIN9__gnu_cxx17__normal_iteratorIPKmSt6vectorImSaImEEEES7_EbT_S8_T0_
FNDA:2,_ZSt5equalIN9__gnu_cxx17__normal_iteratorIPKmSt6vectorImSaImEEEES7_EbT_S8_T0_
DA:90,2
DA:105,2
DA:230,0
DA:235,0
DA:236,0
DA:237,0
DA:230,123
DA:235,123
DA:236,0
DA:237,123
DA:254,24
DA:259,24
DA:260,10
DA:261,14
DA:313,12
DA:315,12
DA:328,1
DA:329,1
DA:335,12
DA:336,12
DA:420,0
DA:429,0
DA:430,0
DA:431,0
DA:432,0
DA:420,13
DA:429,13
DA:430,13
DA:431,13
DA:432,13
DA:486,0
DA:495,0
DA:486,0
DA:495,0
DA:486,13
DA:495,13
DA:521,0
DA:522,0
DA:521,0
DA:522,0
DA:521,13
DA:522,13
DA:527,0
DA:529,0
DA:532,0
DA:527,12
DA:529,12
DA:532,12
DA:527,0
DA:529,0
DA:532,0
DA:527,1
DA:529,1
DA:532,1
DA:611,0
DA:620,0
DA:611,12
DA:620,12
DA:611,0
DA:620,0
DA:611,1
DA:620,1
DA:731,0
DA:740,0
DA:741,0
DA:742,0
DA:743,0
DA:750,0
DA:760,0
DA:762,0
DA:768,0
DA:769,0
DA:796,0
DA:798,0
DA:801,0
DA:884,0
DA:894,0
DA:896,0
DA:919,1
DA:922,1
DA:923,2
DA:924,1
DA:925,1
DA:919,74
DA:922,74
DA:923,156
DA:924,82
DA:925,74
DA:950,1
DA:953,1
DA:950,3
DA:953,3
DA:968,71
DA:969,71
DA:968,1
DA:969,1
DA:968,3
DA:969,3
DA:992,0
DA:999,0
DA:1000,0
DA:992,1
DA:999,1
DA:1000,1
DA:992,3
DA:999,3
DA:1000,3
DA:1010,72
DA:1109,72
DA:1115,72
DA:1116,1
DA:1120,71
DA:1121,71
DA:1144,72
DA:1149,72
DA:1150,144
DA:1174,2
DA:1176,2
DA:1177,2
DA:1178,0
DA:1205,2
DA:1208,2
DA:1211,2
DA:1217,2
DA:1219,2
DA:1221,2
DA:1546,2
DA:1556,2
end_of_record
SF:/usr/include/c++/11/bits/stl_vector.h
FN:97,_ZNSt12_Vector_baseImSaImEE17_Vector_impl_dataC2Ev
FNDA:87,_ZNSt12_Vector_baseImSaImEE17_Vector_impl_dataC2Ev
FN:109,_ZNSt12_Vector_baseImSaImEE17_Vector_impl_data12_M_copy_dataERKS2_
FNDA:3,_ZNSt12_Vector_baseImSaImEE17_Vector_impl_data12_M_copy_dataERKS2_
FN:117,_ZNSt12_Vector_baseImSaImEE17_Vector_impl_data12_M_swap_dataERS2_
FNDA:1,_ZNSt12_Vector_baseImSaImEE17_Vector_impl_data12_M_swap_dataERS2_
FN:131,_ZNSt12_Vector_baseImSaImEE12_Vector_implC2Ev
FNDA:2,_ZNSt12_Vector_baseImSaImEE12_Vector_implC2Ev
FN:136,_ZNSt12_Vector_baseImSaImEE12_Vector_implC2ERKS0_
FNDA:84,_ZNSt12_Vector_baseImSaImEE12_Vector_implC2ERKS0_
FN:276,_ZNSt12_Vector_baseImSaImEE19_M_get_Tp_allocatorEv
FNDA:175,_ZNSt12_Vector_baseImSaImEE19_M_get_Tp_allocatorEv
FN:280,_ZNKSt12_Vector_baseImSaImEE19_M_get_Tp_allocatorEv
FNDA:12,_ZNKSt12_Vector_baseImSaImEE19_M_get_Tp_allocatorEv
FN:288,_ZNSt12_Vector_baseImSaImEEC2Ev
FNDA:2,_ZNSt12_Vector_baseImSaImEEC2Ev
FN:303,_ZNSt12_Vector_baseImSaImEEC2EmRKS0_
FNDA:84,_ZNSt12_Vector_baseImSaImEEC2EmRKS0_
FN:333,_ZNSt12_Vector_baseImSaImEED2Ev
FNDA:86,_ZNSt12_Vector_baseImSaImEED2Ev
FN:343,_ZNSt12_Vector_baseImSaImEE11_M_allocateEm
FNDA:84,_ZNSt12_Vector_baseImSaImEE11_M_allocateEm
FN:350,_ZNSt12_Vector_baseImSaImEE13_M_deallocateEPmm
FNDA:86,_ZNSt12_Vector_baseImSaImEE13_M_deallocateEPmm
FN:359,_ZNSt12_Vector_baseImSaImEE17_M_create_storageEm
FNDA:84,_ZNSt12_Vector_baseImSaImEE17_M_create_storageEm
FN:487,_ZNSt6vectorImSaImEEC2Ev
FNDA:2,_ZNSt6vectorImSaImEEC2Ev
FN:522,_ZNSt6vectorImSaImEEC2EmRKmRKS0_
FNDA:72,_ZNSt6vectorImSaImEEC2EmRKmRKS0_
FN:553,_ZNSt6vectorImSaImEEC2ERKS1_
FNDA:12,_ZNSt6vectorImSaImEEC2ERKS1_
FN:678,_ZNSt6vectorImSaImEED2Ev
FNDA:86,_ZNSt6vectorImSaImEED2Ev
FN:811,_ZNSt6vectorImSaImEE5beginEv
FNDA:6,_ZNSt6vectorImSaImEE5beginEv
FN:820,_ZNKSt6vectorImSaImEE5beginEv
FNDA:24,_ZNKSt6vectorImSaImEE5beginEv
FN:829,_ZNSt6vectorImSaImEE3endEv
FNDA:6,_ZNSt6vectorImSaImEE3endEv
FN:838,_ZNKSt6vectorImSaImEE3endEv
FNDA:22,_ZNKSt6vectorImSaImEE3endEv
FN:918,_ZNKSt6vectorImSaImEE4sizeEv
FNDA:44,_ZNKSt6vectorImSaImEE4sizeEv
FN:923,_ZNKSt6vectorImSaImEE8max_sizeEv
FNDA:0,_ZNKSt6vectorImSaImEE8max_sizeEv
FN:957,_ZNSt6vectorImSaImEE6resizeEmRKm
FNDA:7,_ZNSt6vectorImSaImEE6resizeEmRKm
FN:998,_ZNKSt6vectorImSaImEE8capacityEv
FNDA:1,_ZNKSt6vectorImSaImEE8capacityEv
FN:1043,_ZNSt6vectorImSaImEEixEm
FNDA:217,_ZNSt6vectorImSaImEEixEm
FN:1061,_ZNKSt6vectorImSaImEEixEm
FNDA:366,_ZNKSt6vectorImSaImEEixEm
FN:1480,_ZNSt6vectorImSaImEE4swapERS1_
FNDA:1,_ZNSt6vectorImSaImEE4swapERS1_
FN:1498,_ZNSt6vectorImSaImEE5clearEv
FNDA:2,_ZNSt6vectorImSaImEE5clearEv
FN:1508,_ZNSt6vectorImSaImEE20_M_allocate_and_copyIN9__gnu_cxx17__normal_iteratorIPKmS1_EEEEPmmT_S9_
FNDA:0,_ZNSt6vectorImSaImEE20_M_allocate_and_copyIN9__gnu_cxx17__normal_iteratorIPKmS1_EEEEPmmT_S9_
FN:1593,_ZNSt6vectorImSaImEE18_M_fill_initializeEmRKm
FNDA:72,_ZNSt6vectorImSaImEE18_M_fill_initializeEmRKm
FN:1709,_ZNSt6vectorImSaImEE16_Temporary_valueC2IJRKmEEEPS1_DpOT_
FNDA:0,_ZNSt6vectorImSaImEE16_Temporary_valueC2IJRKmEEEPS1_DpOT_
FN:1715,_ZNSt6vectorImSaImEE16_Temporary_valueD2Ev
FNDA:0,_ZNSt6vectorImSaImEE16_Temporary_valueD2Ev
FN:1719,_ZNSt6vectorImSaImEE16_Temporary_value6_M_valEv
FNDA:0,_ZNSt6vectorImSaImEE16_Temporary_value6_M_valEv
FN:1723,_ZNSt6vectorImSaImEE16_Temporary_value6_M_ptrEv
FNDA:0,_ZNSt6vectorImSaImEE16_Temporary_value6_M_ptrEv
FN:1756,_ZNKSt6vectorImSaImEE12_M_check_lenEmPKc
FNDA:0,_ZNKSt6vectorImSaImEE12_M_check_lenEmPKc
FN:1767,_ZNSt6vectorImSaImEE17_S_check_init_lenEmRKS0_
FNDA:72,_ZNSt6vectorImSaImEE17_S_check_init_lenEmRKS0_
FN:1776,_ZNSt6vectorImSaImEE11_S_max_sizeERKS0_
FNDA:72,_ZNSt6vectorImSaImEE11_S_max_sizeERKS0_
FN:1792,_ZNSt6vectorImSaImEE15_M_erase_at_endEPm
FNDA:2,_ZNSt6vectorImSaImEE15_M_erase_at_endEPm
FN:1892,_ZSteqImSaImEEbRKSt6vectorIT_T0_ES6_
FNDA:2,_ZSteqImSaImEEbRKSt6vectorIT_T0_ES6_
FN:1962,_ZSt4swapImSaImEEvRSt6vectorIT_T0_ES5_
FNDA:1,_ZSt4swapImSaImEEvRSt6vectorIT_T0_ES5_
DA:97,87
DA:98,87
DA:99,87
DA:109,3
DA:111,3
DA:112,3
DA:113,3
DA:114,3
DA:117,1
DA:121,1
DA:122,1
DA:123,1
DA:124,1
DA:125,1
DA:131,2
DA:133,2
DA:134,2
DA:136,84
DA:137,84
DA:138,84
DA:276,175
DA:277,175
DA:280,12
DA:281,12
DA:288,2
DA:303,84
DA:304,84
DA:305,84
DA:333,86
DA:335,86
DA:336,86
DA:337,86
DA:343,84
DA:346,84
DA:350,86
DA:353,86
DA:354,83
DA:355,86
DA:359,84
DA:361,84
DA:362,84
DA:363,84
DA:364,84
DA:487,2
DA:522,72
DA:524,72
DA:525,72
DA:553,12
DA:555,12
DA:557,12
DA:558,12
DA:560,12
DA:561,12
DA:678,86
DA:680,86
DA:681,86
DA:683,86
DA:811,6
DA:812,6
DA:820,24
DA:821,24
DA:829,6
DA:830,6
DA:838,22
DA:839,22
DA:918,44
DA:919,44
DA:923,0
DA:924,0
DA:957,7
DA:959,7
DA:960,0
DA:961,7
DA:962,0
DA:963,7
DA:998,1
DA:999,1
DA:1000,1
DA:1043,217
DA:1046,217
DA:1061,366
DA:1064,366
DA:1480,1
DA:1483,1
DA:1486,1
DA:1487,1
DA:1488,1
DA:1489,1
DA:1498,2
DA:1499,2
DA:1508,0
DA:1511,0
DA:1514,0
DA:1515,0
DA:1516,0
DA:1518,0
DA:1520,0
DA:1521,0
DA:1593,72
DA:1595,72
DA:1596,72
DA:1597,72
DA:1598,72
DA:1709,0
DA:1711,0
DA:1713,0
DA:1715,0
DA:1716,0
DA:1719,0
DA:1723,0
DA:1756,0
DA:1758,0
DA:1759,0
DA:1761,0
DA:1762,0
DA:1767,72
DA:1769,72
DA:1770,0
DA:1772,72
DA:1776,72
DA:1781,72
DA:1783,72
DA:1784,72
DA:1792,2
DA:1794,2
DA:1796,2
DA:1797,2
DA:1798,2
DA:1801,2
DA:1892,2
DA:1893,2
DA:1894,2
DA:1962,1
DA:1964,1
end_of_record
SF:/usr/include/c++/11/ext/new_allocator.h
FN:79,_ZN9__gnu_cxx13new_allocatorImEC2Ev
FNDA:74,_ZN9__gnu_cxx13new_allocatorImEC2Ev
FN:79,_ZN9__gnu_cxx13new_allocatorIcEC2Ev
FNDA:0,_ZN9__gnu_cxx13new_allocatorIcEC2Ev
FN:82,_ZN9__gnu_cxx13new_allocatorImEC2ERKS1_
FNDA:168,_ZN9__gnu_cxx13new_allocatorImEC2ERKS1_
FN:89,_ZN9__gnu_cxx13new_allocatorImED2Ev
FNDA:242,_ZN9__gnu_cxx13new_allocatorImED2Ev
FN:89,_ZN9__gnu_cxx13new_allocatorIcED2Ev
FNDA:0,_ZN9__gnu_cxx13new_allocatorIcED2Ev
FN:103,_ZN9__gnu_cxx13new_allocatorImE8allocateEmPKv
FNDA:83,_ZN9__gnu_cxx13new_allocatorImE8allocateEmPKv
FN:132,_ZN9__gnu_cxx13new_allocatorImE10deallocateEPmm
FNDA:83,_ZN9__gnu_cxx13new_allocatorImE10deallocateEPmm
FN:154,_ZNK9__gnu_cxx13new_allocatorImE8max_sizeEv
FNDA:72,_ZNK9__gnu_cxx13new_allocatorImE8max_sizeEv
FN:160,_ZN9__gnu_cxx13new_allocatorImE9constructImJRKmEEEvPT_DpOT0_
FNDA:0,_ZN9__gnu_cxx13new_allocatorImE9constructImJRKmEEEvPT_DpOT0_
FN:166,_ZN9__gnu_cxx13new_allocatorImE7destroyImEEvPT_
FNDA:0,_ZN9__gnu_cxx13new_allocatorImE7destroyImEEvPT_
FN:197,_ZNK9__gnu_cxx13new_allocatorImE11_M_max_sizeEv
FNDA:155,_ZNK9__gnu_cxx13new_allocatorImE11_M_max_sizeEv
DA:79,74
DA:79,0
DA:82,168
DA:89,242
DA:89,0
DA:103,83
DA:111,83
DA:115,0
DA:116,0
DA:117,0
DA:127,83
DA:132,83
DA:145,83
DA:154,72
DA:155,72
DA:160,0
DA:162,0
DA:166,0
DA:168,0
DA:197,155
DA:200,155
end_of_record
SF:/usr/include/c++/11/bits/vector.tcc
FN:198,_ZNSt6vectorImSaImEEaSERKS1_
FNDA:1,_ZNSt6vectorImSaImEEaSERKS1_
FN:509,_ZNSt6vectorImSaImEE14_M_fill_insertEN9__gnu_cxx17__normal_iteratorIPmS1_EEmRKm
FNDA:0,_ZNSt6vectorImSaImEE14_M_fill_insertEN9__gnu_cxx17__normal_iteratorIPmS1_EEmRKm
DA:198,1
DA:201,1
DA:205,1
DA:207,0
DA:208,0
DA:211,0
DA:212,0
DA:213,0
DA:214,0
DA:215,0
DA:216,0
DA:217,0
DA:219,0
DA:220,0
DA:223,1
DA:224,1
DA:226,0
DA:228,0
DA:229,0
DA:230,0
DA:231,0
DA:232,0
DA:233,0
DA:234,0
DA:236,1
DA:238,1
DA:239,1
DA:243,0
DA:245,0
DA:246,0
DA:248,0
DA:250,1
DA:252,1
DA:509,0
DA:512,0
DA:514,0
DA:515,0
DA:520,0
DA:521,0
DA:523,0
DA:524,0
DA:525,0
DA:528,0
DA:531,0
DA:532,0
DA:534,0
DA:536,0
DA:542,0
DA:543,0
DA:546,0
DA:548,0
DA:550,0
DA:551,0
DA:553,0
DA:555,0
DA:559,0
DA:560,0
DA:561,0
DA:562,0
DA:566,0
DA:568,0
DA:569,0
DA:573,0
DA:574,0
DA:576,0
DA:580,0
DA:581,0
DA:583,0
DA:585,0
DA:586,0
DA:587,0
DA:588,0
DA:590,0
DA:591,0
DA:592,0
DA:593,0
DA:595,0
DA:596,0
DA:598,0
DA:599,0
DA:600,0
DA:601,0
DA:602,0
DA:603,0
DA:606,0
end_of_record
SF:/home/drakowkq/work/labs/lab1(bitArr)/bitArray.cpp
FN:7,_ZN8BitArrayC2Ev
FNDA:2,_ZN8BitArrayC2Ev
FN:9,_ZN8BitArrayD2Ev
FNDA:85,_ZN8BitArrayD2Ev
FN:11,_ZN8BitArrayC2Eim
FNDA:72,_ZN8BitArrayC2Eim
FN:26,_ZN8BitArrayC2ERKS_
FNDA:12,_ZN8BitArrayC2ERKS_
FN:28,_ZN8BitArray4swapERS_
FNDA:1,_ZN8BitArray4swapERS_
FN:33,_ZN8BitArrayaSERKS_
FNDA:1,_ZN8BitArrayaSERKS_
FN:41,_ZN8BitArray6resizeEib
FNDA:9,_ZN8BitArray6resizeEib
FN:69,_ZN8BitArray5clearEv
FNDA:2,_ZN8BitArray5clearEv
FN:74,_ZN8BitArray8pushBackEb
FNDA:2,_ZN8BitArray8pushBackEb
FN:78,_ZN8BitArrayaNERKS_
FNDA:3,_ZN8BitArrayaNERKS_
FN:90,_ZN8BitArrayoRERKS_
FNDA:3,_ZN8BitArrayoRERKS_
FN:103,_ZN8BitArrayeOERKS_
FNDA:3,_ZN8BitArrayeOERKS_
FN:116,_ZN8BitArraylSEi
FNDA:8,_ZN8BitArraylSEi
FN:138,_ZN8BitArrayrSEi
FNDA:6,_ZN8BitArrayrSEi
FN:161,_ZNK8BitArraylsEi
FNDA:3,_ZNK8BitArraylsEi
FN:167,_ZNK8BitArrayrsEi
FNDA:3,_ZNK8BitArrayrsEi
FN:174,_ZN8BitArray3setEib
FNDA:215,_ZN8BitArray3setEib
FN:187,_ZN8BitArray3setEv
FNDA:3,_ZN8BitArray3setEv
FN:192,_ZN8BitArray5resetEi
FNDA:36,_ZN8BitArray5resetEi
FN:196,_ZN8BitArray5resetEv
FNDA:1,_ZN8BitArray5resetEv
FN:201,_ZNK8BitArray3anyEv
FNDA:7,_ZNK8BitArray3anyEv
FN:208,_ZNK8BitArray4noneEv
FNDA:4,_ZNK8BitArray4noneEv
FN:212,_ZNK8BitArraycoEv
FNDA:1,_ZNK8BitArraycoEv
FN:220,_ZNK8BitArray5countEv
FNDA:6,_ZNK8BitArray5countEv
FN:231,_ZNK8BitArrayixEi
FNDA:360,_ZNK8BitArrayixEi
FN:239,_ZNK8BitArray4sizeEv
FNDA:31,_ZNK8BitArray4sizeEv
FN:243,_ZNK8BitArray5emptyEv
FNDA:5,_ZNK8BitArray5emptyEv
FN:247,_ZNK8BitArray8toStringB5cxx11Ev
FNDA:37,_ZNK8BitArray8toStringB5cxx11Ev
FN:255,_ZeqRK8BitArrayS1_
FNDA:4,_ZeqRK8BitArrayS1_
FN:259,_ZneRK8BitArrayS1_
FNDA:2,_ZneRK8BitArrayS1_
FN:263,_ZanRK8BitArrayS1_
FNDA:2,_ZanRK8BitArrayS1_
FN:272,_ZorRK8BitArrayS1_
FNDA:2,_ZorRK8BitArrayS1_
FN:281,_ZeoRK8BitArrayS1_
FNDA:2,_ZeoRK8BitArrayS1_
DA:7,2
DA:9,85
DA:11,72
DA:12,72
DA:13,72
DA:14,1
DA:17,71
DA:18,1082
DA:19,1011
DA:20,102
DA:24,72
DA:26,12
DA:28,1
DA:29,1
DA:30,1
DA:31,1
DA:33,1
DA:34,1
DA:35,1
DA:36,1
DA:38,1
DA:41,9
DA:42,9
DA:43,1
DA:44,1
DA:47,8
DA:48,1
DA:51,7
DA:53,7
DA:54,2
DA:58,7
DA:59,7
DA:61,7
DA:62,27
DA:63,22
DA:69,2
DA:70,2
DA:71,2
DA:72,2
DA:74,2
DA:75,2
DA:76,2
DA:78,3
DA:79,3
DA:80,1
DA:83,4
DA:84,2
DA:87,2
DA:90,3
DA:91,3
DA:92,1
DA:95,4
DA:96,2
DA:99,2
DA:103,3
DA:104,3
DA:105,1
DA:108,4
DA:109,2
DA:112,2
DA:116,8
DA:117,8
DA:118,2
DA:121,6
DA:122,18
DA:123,16
DA:125,2
DA:128,24
DA:129,20
DA:132,16
DA:133,12
DA:135,4
DA:138,6
DA:139,6
DA:140,2
DA:143,4
DA:144,18
DA:145,16
DA:147,2
DA:150,13
DA:151,11
DA:154,5
DA:155,3
DA:158,2
DA:161,3
DA:162,3
DA:163,3
DA:164,2
DA:165,1
DA:167,3
DA:168,3
DA:169,3
DA:170,2
DA:171,1
DA:174,215
DA:175,215
DA:176,4
DA:178,211
DA:179,124
DA:182,87
DA:184,211
DA:187,3
DA:188,3
DA:189,3
DA:192,36
DA:193,36
DA:196,1
DA:197,1
DA:198,1
DA:201,7
DA:202,15
DA:203,12
DA:205,3
DA:208,4
DA:209,4
DA:212,1
DA:213,1
DA:214,2
DA:215,1
DA:217,1
DA:220,6
DA:221,6
DA:223,66
DA:224,60
DA:227,6
DA:231,360
DA:232,360
DA:233,0
DA:236,360
DA:239,31
DA:240,31
DA:243,5
DA:244,5
DA:247,37
DA:248,37
DA:249,301
DA:250,264
DA:252,37
DA:253,0
DA:255,4
DA:256,4
DA:259,2
DA:260,2
DA:263,2
DA:264,2
DA:265,1
DA:267,1
DA:268,1
DA:269,1
DA:270,0
DA:272,2
DA:273,2
DA:274,1
DA:276,1
DA:277,1
DA:278,1
DA:279,0
DA:281,2
DA:282,2
DA:283,1
DA:285,1
DA:286,1
DA:287,1
DA:288,0
end_of_record
SF:/usr/include/c++/11/bits/stl_iterator.h
FN:1027,_ZN9__gnu_cxx17__normal_iteratorIPmSt6vectorImSaImEEEC2ERKS1_
FNDA:13,_ZN9__gnu_cxx17__normal_iteratorIPmSt6vectorImSaImEEEC2ERKS1_
FN:1027,_ZN9__gnu_cxx17__normal_iteratorIPKmSt6vectorImSaImEEEC2ERKS2_
FNDA:46,_ZN9__gnu_cxx17__normal_iteratorIPKmSt6vectorImSaImEEEC2ERKS2_
FN:1042,_ZNK9__gnu_cxx17__normal_iteratorIPKmSt6vectorImSaImEEEdeEv
FNDA:12,_ZNK9__gnu_cxx17__normal_iteratorIPKmSt6vectorImSaImEEEdeEv
FN:1042,_ZNK9__gnu_cxx17__normal_iteratorIPmSt6vectorImSaImEEEdeEv
FNDA:1,_ZNK9__gnu_cxx17__normal_iteratorIPmSt6vectorImSaImEEEdeEv
FN:1052,_ZN9__gnu_cxx17__normal_iteratorIPKmSt6vectorImSaImEEEppEv
FNDA:8,_ZN9__gnu_cxx17__normal_iteratorIPKmSt6vectorImSaImEEEppEv
FN:1052,_ZN9__gnu_cxx17__normal_iteratorIPmSt6vectorImSaImEEEppEv
FNDA:1,_ZN9__gnu_cxx17__normal_iteratorIPmSt6vectorImSaImEEEppEv
FN:1090,_ZNK9__gnu_cxx17__normal_iteratorIPmSt6vectorImSaImEEEplEl
FNDA:1,_ZNK9__gnu_cxx17__normal_iteratorIPmSt6vectorImSaImEEEplEl
FN:1105,_ZNK9__gnu_cxx17__normal_iteratorIPmSt6vectorImSaImEEE4baseEv
FNDA:14,_ZNK9__gnu_cxx17__normal_iteratorIPmSt6vectorImSaImEEE4baseEv
FN:1105,_ZNK9__gnu_cxx17__normal_iteratorIPKmSt6vectorImSaImEEE4baseEv
FNDA:62,_ZNK9__gnu_cxx17__normal_iteratorIPKmSt6vectorImSaImEEE4baseEv
FN:1179,_ZN9__gnu_cxxneIPKmSt6vectorImSaImEEEEbRKNS_17__normal_iteratorIT_T0_EESB_
FNDA:15,_ZN9__gnu_cxxneIPKmSt6vectorImSaImEEEEbRKNS_17__normal_iteratorIT_T0_EESB_
FN:1179,_ZN9__gnu_cxxneIPmSt6vectorImSaImEEEEbRKNS_17__normal_iteratorIT_T0_EESA_
FNDA:2,_ZN9__gnu_cxxneIPmSt6vectorImSaImEEEEbRKNS_17__normal_iteratorIT_T0_EESA_
FN:1268,_ZN9__gnu_cxxmiIPmSt6vectorImSaImEEEENS_17__normal_iteratorIT_T0_E15difference_typeERKS8_SB_
FNDA:0,_ZN9__gnu_cxxmiIPmSt6vectorImSaImEEEENS_17__normal_iteratorIT_T0_E15difference_typeERKS8_SB_
FN:1291,_ZSt12__niter_baseIPKmSt6vectorImSaImEEET_N9__gnu_cxx17__normal_iteratorIS5_T0_EE
FNDA:32,_ZSt12__niter_baseIPKmSt6vectorImSaImEEET_N9__gnu_cxx17__normal_iteratorIS5_T0_EE
FN:1291,_ZSt12__niter_baseIPmSt6vectorImSaImEEET_N9__gnu_cxx17__normal_iteratorIS4_T0_EE
FNDA:2,_ZSt12__niter_baseIPmSt6vectorImSaImEEET_N9__gnu_cxx17__normal_iteratorIS4_T0_EE
FN:1439,_ZNSt13move_iteratorIPmEC2ES0_
FNDA:0,_ZNSt13move_iteratorIPmEC2ES0_
FN:1464,_ZNKSt13move_iteratorIPmE4baseEv
FNDA:0,_ZNKSt13move_iteratorIPmE4baseEv
FN:1706,_ZSt18make_move_iteratorIPmESt13move_iteratorIT_ES2_
FNDA:0,_ZSt18make_move_iteratorIPmESt13move_iteratorIT_ES2_
FN:1723,_ZSt32__make_move_if_noexcept_iteratorImSt13move_iteratorIPmEET0_PT_
FNDA:0,_ZSt32__make_move_if_noexcept_iteratorImSt13move_iteratorIPmEET0_PT_
FN:2464,_ZSt12__miter_baseIPmEDTcl12__miter_basecldtfp_4baseEEESt13move_iteratorIT_E
FNDA:0,_ZSt12__miter_baseIPmEDTcl12__miter_basecldtfp_4baseEEESt13move_iteratorIT_E
DA:1027,46
DA:1028,46
DA:1027,13
DA:1028,13
DA:1042,1
DA:1043,1
DA:1042,12
DA:1043,12
DA:1052,1
DA:1054,1
DA:1055,1
DA:1052,8
DA:1054,8
DA:1055,8
DA:1090,1
DA:1091,1
DA:1105,14
DA:1106,14
DA:1105,62
DA:1106,62
DA:1179,2
DA:1182,2
DA:1179,15
DA:1182,15
DA:1268,0
DA:1271,0
DA:1291,2
DA:1293,2
DA:1291,32
DA:1293,32
DA:1439,0
DA:1440,0
DA:1464,0
DA:1465,0
DA:1706,0
DA:1707,0
DA:1723,0
DA:1724,0
DA:2464,0
DA:2466,0
end_of_record
SF:/usr/include/c++/11/bits/allocator.h
FN:156,_ZNSaImEC2Ev
FNDA:74,_ZNSaImEC2Ev
FN:159,_ZNSaImEC2ERKS_
FNDA:168,_ZNSaImEC2ERKS_
FN:174,_ZNSaImED2Ev
FNDA:242,_ZNSaImED2Ev
FN:209,_ZStneRKSaImES1_
FNDA:0,_ZStneRKSaImES1_
DA:156,74
DA:159,168
DA:160,168
DA:174,242
DA:209,0
DA:210,0
end_of_record
SF:/usr/include/c++/11/bits/stl_uninitialized.h
FN:108,_ZNSt20__uninitialized_copyILb1EE13__uninit_copyISt13move_iteratorIPmES3_EET0_T_S6_S5_
FNDA:0,_ZNSt20__uninitialized_copyILb1EE13__uninit_copyISt13move_iteratorIPmES3_EET0_T_S6_S5_
FN:108,_ZNSt20__uninitialized_copyILb1EE13__uninit_copyIPmS2_EET0_T_S4_S3_
FNDA:0,_ZNSt20__uninitialized_copyILb1EE13__uninit_copyIPmS2_EET0_T_S4_S3_
FN:108,_ZNSt20__uninitialized_copyILb1EE13__uninit_copyIN9__gnu_cxx17__normal_iteratorIPKmSt6vectorImSaImEEEEPmEET0_T_SC_SB_
FNDA:12,_ZNSt20__uninitialized_copyILb1EE13__uninit_copyIN9__gnu_cxx17__normal_iteratorIPKmSt6vectorImSaImEEEEPmEET0_T_SC_SB_
FN:126,_ZSt18uninitialized_copyISt13move_iteratorIPmES1_ET0_T_S4_S3_
FNDA:0,_ZSt18uninitialized_copyISt13move_iteratorIPmES1_ET0_T_S4_S3_
FN:126,_ZSt18uninitialized_copyIPmS0_ET0_T_S2_S1_
FNDA:0,_ZSt18uninitialized_copyIPmS0_ET0_T_S2_S1_
FN:126,_ZSt18uninitialized_copyIN9__gnu_cxx17__normal_iteratorIPKmSt6vectorImSaImEEEEPmET0_T_SA_S9_
FNDA:12,_ZSt18uninitialized_copyIN9__gnu_cxx17__normal_iteratorIPKmSt6vectorImSaImEEEEPmET0_T_SA_S9_
FN:253,_ZNSt22__uninitialized_fill_nILb1EE15__uninit_fill_nIPmmmEET_S3_T0_RKT1_
FNDA:72,_ZNSt22__uninitialized_fill_nILb1EE15__uninit_fill_nIPmmmEET_S3_T0_RKT1_
FN:273,_ZSt20uninitialized_fill_nIPmmmET_S1_T0_RKT1_
FNDA:72,_ZSt20uninitialized_fill_nIPmmmET_S1_T0_RKT1_
FN:331,_ZSt22__uninitialized_copy_aISt13move_iteratorIPmES1_mET0_T_S4_S3_RSaIT1_E
FNDA:0,_ZSt22__uninitialized_copy_aISt13move_iteratorIPmES1_mET0_T_S4_S3_RSaIT1_E
FN:331,_ZSt22__uninitialized_copy_aIPmS0_mET0_T_S2_S1_RSaIT1_E
FNDA:0,_ZSt22__uninitialized_copy_aIPmS0_mET0_T_S2_S1_RSaIT1_E
FN:331,_ZSt22__uninitialized_copy_aIN9__gnu_cxx17__normal_iteratorIPKmSt6vectorImSaImEEEEPmmET0_T_SA_S9_RSaIT1_E
FNDA:12,_ZSt22__uninitialized_copy_aIN9__gnu_cxx17__normal_iteratorIPKmSt6vectorImSaImEEEEPmmET0_T_SA_S9_RSaIT1_E
FN:338,_ZSt22__uninitialized_move_aIPmS0_SaImEET0_T_S3_S2_RT1_
FNDA:0,_ZSt22__uninitialized_move_aIPmS0_SaImEET0_T_S3_S2_RT1_
FN:349,_ZSt34__uninitialized_move_if_noexcept_aIPmS0_SaImEET0_T_S3_S2_RT1_
FNDA:0,_ZSt34__uninitialized_move_if_noexcept_aIPmS0_SaImEET0_T_S3_S2_RT1_
FN:408,_ZSt24__uninitialized_fill_n_aIPmmmmET_S1_T0_RKT1_RSaIT2_E
FNDA:72,_ZSt24__uninitialized_fill_n_aIPmmmmET_S1_T0_RKT1_RSaIT2_E
DA:108,0
DA:110,0
DA:108,0
DA:110,0
DA:108,12
DA:110,12
DA:126,0
DA:145,0
DA:151,0
DA:126,0
DA:145,0
DA:151,0
DA:126,12
DA:145,12
DA:151,12
DA:253,72
DA:255,72
DA:273,72
DA:293,72
DA:297,72
DA:331,0
DA:333,0
DA:331,0
DA:333,0
DA:331,12
DA:333,12
DA:338,0
DA:341,0
DA:343,0
DA:349,0
DA:355,0
DA:356,0
DA:408,72
DA:410,72
end_of_record
SF:/usr/include/c++/11/bits/basic_string.h
FN:553,_ZNSt7__cxx1112basic_stringIcSt11char_traitsIcESaIcEEC2IS3_EEmcRKS3_
FNDA:264,_ZNSt7__cxx1112basic_stringIcSt11char_traitsIcESaIcEEC2IS3_EEmcRKS3_
FN:6660,_ZNSt7__cxx119to_stringEi
FNDA:264,_ZNSt7__cxx119to_stringEi
DA:553,264
DA:554,264
DA:555,264
DA:6660,264
DA:6662,264
DA:6663,264
DA:6664,264
DA:6665,264
DA:6666,264
DA:6667,264
DA:6668,0
end_of_record
SF:/usr/include/c++/11/bits/move.h
FN:77,_ZSt7forwardIRKmEOT_RNSt16remove_referenceIS2_E4typeE
FNDA:0,_ZSt7forwardIRKmEOT_RNSt16remove_referenceIS2_E4typeE
FN:104,_ZSt4moveIRPmEONSt16remove_referenceIT_E4typeEOS3_
FNDA:0,_ZSt4moveIRPmEONSt16remove_referenceIT_E4typeEOS3_
FN:104,_ZSt4moveIRSaIcEEONSt16remove_referenceIT_E4typeEOS3_
FNDA:0,_ZSt4moveIRSaIcEEONSt16remove_referenceIT_E4typeEOS3_
FN:104,_ZSt4moveIRiEONSt16remove_referenceIT_E4typeEOS2_
FNDA:54,_ZSt4moveIRiEONSt16remove_referenceIT_E4typeEOS2_
FN:196,_ZSt4swapIiENSt9enable_ifIXsrSt6__and_IJSt6__not_ISt15__is_tuple_likeIT_EESt21is_move_constructibleIS4_ESt18is_move_assignableIS4_EEE5valueEvE4typeERS4_SE_
FNDA:1,_ZSt4swapIiENSt9enable_ifIXsrSt6__and_IJSt6__not_ISt15__is_tuple_likeIT_EESt21is_move_constructibleIS4_ESt18is_move_assignableIS4_EEE5valueEvE4typeERS4_SE_
DA:77,0
DA:78,0
DA:104,0
DA:105,0
DA:104,0
DA:105,0
DA:104,54
DA:105,54
DA:196,1
DA:204,1
DA:205,1
DA:206,1
DA:207,1
end_of_record
SF:/usr/include/c++/11/iostream
end_of_record
SF:/usr/include/c++/11/bits/alloc_traits.h
FN:463,_ZNSt16allocator_traitsISaImEE8allocateERS0_m
FNDA:83,_ZNSt16allocator_traitsISaImEE8allocateERS0_m
FN:495,_ZNSt16allocator_traitsISaImEE10deallocateERS0_Pmm
FNDA:83,_ZNSt16allocator_traitsISaImEE10deallocateERS0_Pmm
FN:511,_ZNSt16allocator_traitsISaImEE9constructImJRKmEEEvRS0_PT_DpOT0_
FNDA:0,_ZNSt16allocator_traitsISaImEE9constructImJRKmEEEvRS0_PT_DpOT0_
FN:531,_ZNSt16allocator_traitsISaImEE7destroyImEEvRS0_PT_
FNDA:0,_ZNSt16allocator_traitsISaImEE7destroyImEEvRS0_PT_
FN:547,_ZNSt16allocator_traitsISaImEE8max_sizeERKS0_
FNDA:72,_ZNSt16allocator_traitsISaImEE8max_sizeERKS0_
FN:562,_ZNSt16allocator_traitsISaImEE37select_on_container_copy_constructionERKS0_
FNDA:12,_ZNSt16allocator_traitsISaImEE37select_on_container_copy_constructionERKS0_
FN:678,_ZSt15__alloc_on_copyISaImEEvRT_RKS1_
FNDA:0,_ZSt15__alloc_on_copyISaImEEvRT_RKS1_
FN:737,_ZSt15__alloc_on_swapISaImEEvRT_S2_
FNDA:1,_ZSt15__alloc_on_swapISaImEEvRT_S2_
FN:845,_ZSt8_DestroyIN9__gnu_cxx17__normal_iteratorIPmSt6vectorImSaImEEEEmEvT_S7_RSaIT0_E
FNDA:1,_ZSt8_DestroyIN9__gnu_cxx17__normal_iteratorIPmSt6vectorImSaImEEEEmEvT_S7_RSaIT0_E
FN:845,_ZSt8_DestroyIPmmEvT_S1_RSaIT0_E
FNDA:88,_ZSt8_DestroyIPmmEvT_S1_RSaIT0_E
DA:463,83
DA:464,83
DA:495,83
DA:496,83
DA:511,0
DA:516,0
DA:520,0
DA:531,0
DA:535,0
DA:539,0
DA:547,72
DA:550,72
DA:562,12
DA:563,12
DA:678,0
DA:688,0
DA:737,1
DA:750,1
DA:845,1
DA:848,1
DA:849,1
DA:845,88
DA:848,88
DA:849,88
end_of_record
SF:/usr/include/c++/11/bits/stl_construct.h
FN:172,_ZNSt12_Destroy_auxILb1EE9__destroyIN9__gnu_cxx17__normal_iteratorIPmSt6vectorImSaImEEEEEEvT_S9_
FNDA:1,_ZNSt12_Destroy_auxILb1EE9__destroyIN9__gnu_cxx17__normal_iteratorIPmSt6vectorImSaImEEEEEEvT_S9_
FN:172,_ZNSt12_Destroy_auxILb1EE9__destroyIPmEEvT_S3_
FNDA:88,_ZNSt12_Destroy_auxILb1EE9__destroyIPmEEvT_S3_
FN:182,_ZSt8_DestroyIN9__gnu_cxx17__normal_iteratorIPmSt6vectorImSaImEEEEEvT_S7_
FNDA:1,_ZSt8_DestroyIN9__gnu_cxx17__normal_iteratorIPmSt6vectorImSaImEEEEEvT_S7_
FN:182,_ZSt8_DestroyIPmEvT_S1_
FNDA:88,_ZSt8_DestroyIPmEvT_S1_
DA:172,1
DA:172,88
DA:182,1
DA:196,1
DA:197,1
DA:182,88
DA:196,88
DA:197,88
end_of_record
SF:/usr/include/c++/11/bits/charconv.h
FN:47,_ZNSt8__detail14__to_chars_lenIjEEjT_i
FNDA:264,_ZNSt8__detail14__to_chars_lenIjEEjT_i
FN:72,_ZNSt8__detail18__to_chars_10_implIjEEvPcjT_
FNDA:264,_ZNSt8__detail18__to_chars_10_implIjEEvPcjT_
DA:47,264
DA:52,264
DA:53,264
DA:54,264
DA:55,264
DA:58,264
DA:59,0
DA:60,0
DA:61,0
DA:62,0
DA:63,0
DA:72,264
DA:83,264
DA:84,264
DA:86,0
DA:87,0
DA:88,0
DA:89,0
DA:90,0
DA:92,264
DA:94,0
DA:95,0
DA:96,0
DA:99,264
DA:100,264
end_of_record
SF:/usr/include/c++/11/bits/cpp_type_traits.h
FN:560,_ZSt12__miter_baseIPmET_S1_
FNDA:0,_ZSt12__miter_baseIPmET_S1_
FN:560,_ZSt12__miter_baseIN9__gnu_cxx17__normal_iteratorIPKmSt6vectorImSaImEEEEET_S8_
FNDA:26,_ZSt12__miter_baseIN9__gnu_cxx17__normal_iteratorIPKmSt6vectorImSaImEEEEET_S8_
DA:560,0
DA:561,0
DA:560,26
DA:561,26
end_of_record
TN:
SF:/home/drakowkq/work/labs/lab1(bitArr)/googletest/googletest/include/gtest/internal/gtest-type-util.h
FN:57,_ZN7testing8internal31CanonicalizeForStdLibVersioningENSt7__cxx1112basic_stringIcSt11char_traitsIcESaIcEEE
FNDA:0,_ZN7testing8internal31CanonicalizeForStdLibVersioningENSt7__cxx1112basic_stringIcSt11char_traitsIcESaIcEEE
FN:71,_ZN7testing8internal11GetTypeNameB5cxx11ERKSt9type_info
FNDA:0,_ZN7testing8internal11GetTypeNameB5cxx11ERKSt9type_info
DA:57,0
DA:59,0
DA:60,0
DA:61,0
DA:63,0
DA:66,0
DA:71,0
DA:72,0
DA:74,0
DA:80,0
DA:81,0
DA:82,0
DA:83,0
DA:87,0
end_of_record
SF:/usr/include/c++/11/ext/type_traits.h
FN:152,_ZN9__gnu_cxx17__is_null_pointerIcEEbPT_
FNDA:0,_ZN9__gnu_cxx17__is_null_pointerIcEEbPT_
FN:152,_ZN9__gnu_cxx17__is_null_pointerIKcEEbPT_
FNDA:273,_ZN9__gnu_cxx17__is_null_pointerIKcEEbPT_
DA:152,0
DA:153,0
DA:152,273
DA:153,273
end_of_record
SF:/usr/include/c++/11/bits/stl_algobase.h
FN:230,_ZSt3minIiERKT_S2_S2_
FNDA:72,_ZSt3minIiERKT_S2_S2_
DA:230,72
DA:235,72
DA:236,8
DA:237,64
end_of_record
SF:/usr/include/c++/11/ext/alloc_traits.h
FN:97,_ZN9__gnu_cxx14__alloc_traitsISaIcEcE17_S_select_on_copyERKS1_
FNDA:0,_ZN9__gnu_cxx14__alloc_traitsISaIcEcE17_S_select_on_copyERKS1_
DA:97,0
DA:98,0
end_of_record
SF:/home/drakowkq/work/labs/lab1(bitArr)/googletest/googletest/include/gtest/gtest.h
FN:244,_ZN7testing4Test14SetUpTestSuiteEv
FNDA:0,_ZN7testing4Test14SetUpTestSuiteEv
FN:252,_ZN7testing4Test17TearDownTestSuiteEv
FNDA:0,_ZN7testing4Test17TearDownTestSuiteEv
FN:257,_ZN7testing4Test16TearDownTestCaseEv
FNDA:0,_ZN7testing4Test16TearDownTestCaseEv
FN:258,_ZN7testing4Test13SetUpTestCaseEv
FNDA:0,_ZN7testing4Test13SetUpTestCaseEv
FN:339,_ZN7testing4Test5SetupEv
FNDA:0,_ZN7testing4Test5SetupEv
FN:1338,_ZN7testing8internal18CmpHelperEQFailureINSt7__cxx1112basic_stringIcSt11char_traitsIcESaIcEEEA5_cEENS_15AssertionResultEPKcSB_RKT_RKT0_
FNDA:0,_ZN7testing8internal18CmpHelperEQFailureINSt7__cxx1112basic_stringIcSt11char_traitsIcESaIcEEEA5_cEENS_15AssertionResultEPKcSB_RKT_RKT0_
FN:1338,_ZN7testing8internal18CmpHelperEQFailureIiiEENS_15AssertionResultEPKcS4_RKT_RKT0_
FNDA:0,_ZN7testing8internal18CmpHelperEQFailureIiiEENS_15AssertionResultEPKcS4_RKT_RKT0_
FN:1338,_ZN7testing8internal18CmpHelperEQFailureIbbEENS_15AssertionResultEPKcS4_RKT_RKT0_
FNDA:0,_ZN7testing8internal18CmpHelperEQFailureIbbEENS_15AssertionResultEPKcS4_RKT_RKT0_
FN:1338,_ZN7testing8internal18CmpHelperEQFailureINSt7__cxx1112basic_stringIcSt11char_traitsIcESaIcEEEA1_cEENS_15AssertionResultEPKcSB_RKT_RKT0_
FNDA:0,_ZN7testing8internal18CmpHelperEQFailureINSt7__cxx1112basic_stringIcSt11char_traitsIcESaIcEEEA1_cEENS_15AssertionResultEPKcSB_RKT_RKT0_
FN:1338,_ZN7testing8internal18CmpHelperEQFailureINSt7__cxx1112basic_stringIcSt11char_traitsIcESaIcEEES7_EENS_15AssertionResultEPKcSA_RKT_RKT0_
FNDA:0,_ZN7testing8internal18CmpHelperEQFailureINSt7__cxx1112basic_stringIcSt11char_traitsIcESaIcEEES7_EENS_15AssertionResultEPKcSA_RKT_RKT0_
FN:1338,_ZN7testing8internal18CmpHelperEQFailureINSt7__cxx1112basic_stringIcSt11char_traitsIcESaIcEEEA11_cEENS_15AssertionResultEPKcSB_RKT_RKT0_
FNDA:0,_ZN7testing8internal18CmpHelperEQFailureINSt7__cxx1112basic_stringIcSt11char_traitsIcESaIcEEEA11_cEENS_15AssertionResultEPKcSB_RKT_RKT0_
FN:1338,_ZN7testing8internal18CmpHelperEQFailureINSt7__cxx1112basic_stringIcSt11char_traitsIcESaIcEEEA9_cEENS_15AssertionResultEPKcSB_RKT_RKT0_
FNDA:0,_ZN7testing8internal18CmpHelperEQFailureINSt7__cxx1112basic_stringIcSt11char_traitsIcESaIcEEEA9_cEENS_15AssertionResultEPKcSB_RKT_RKT0_
FN:1355,_ZN7testing8internal11CmpHelperEQIbbEENS_15AssertionResultEPKcS4_RKT_RKT0_
FNDA:7,_ZN7testing8internal11CmpHelperEQIbbEENS_15AssertionResultEPKcS4_RKT_RKT0_
FN:1355,_ZN7testing8internal11CmpHelperEQIiiEENS_15AssertionResultEPKcS4_RKT_RKT0_
FNDA:22,_ZN7testing8internal11CmpHelperEQIiiEENS_15AssertionResultEPKcS4_RKT_RKT0_
FN:1355,_ZN7testing8internal11CmpHelperEQINSt7__cxx1112basic_stringIcSt11char_traitsIcESaIcEEEA9_cEENS_15AssertionResultEPKcSB_RKT_RKT0_
FNDA:24,_ZN7testing8internal11CmpHelperEQINSt7__cxx1112basic_stringIcSt11char_traitsIcESaIcEEEA9_cEENS_15AssertionResultEPKcSB_RKT_RKT0_
FN:1355,_ZN7testing8internal11CmpHelperEQINSt7__cxx1112basic_stringIcSt11char_traitsIcESaIcEEEA11_cEENS_15AssertionResultEPKcSB_RKT_RKT0_
FNDA:2,_ZN7testing8internal11CmpHelperEQINSt7__cxx1112basic_stringIcSt11char_traitsIcESaIcEEEA11_cEENS_15AssertionResultEPKcSB_RKT_RKT0_
FN:1355,_ZN7testing8internal11CmpHelperEQINSt7__cxx1112basic_stringIcSt11char_traitsIcESaIcEEES7_EENS_15AssertionResultEPKcSA_RKT_RKT0_
FNDA:2,_ZN7testing8internal11CmpHelperEQINSt7__cxx1112basic_stringIcSt11char_traitsIcESaIcEEES7_EENS_15AssertionResultEPKcSA_RKT_RKT0_
FN:1355,_ZN7testing8internal11CmpHelperEQINSt7__cxx1112basic_stringIcSt11char_traitsIcESaIcEEEA1_cEENS_15AssertionResultEPKcSB_RKT_RKT0_
FNDA:2,_ZN7testing8internal11CmpHelperEQINSt7__cxx1112basic_stringIcSt11char_traitsIcESaIcEEEA1_cEENS_15AssertionResultEPKcSB_RKT_RKT0_
FN:1355,_ZN7testing8internal11CmpHelperEQINSt7__cxx1112basic_stringIcSt11char_traitsIcESaIcEEEA5_cEENS_15AssertionResultEPKcSB_RKT_RKT0_
FNDA:5,_ZN7testing8internal11CmpHelperEQINSt7__cxx1112basic_stringIcSt11char_traitsIcESaIcEEEA5_cEENS_15AssertionResultEPKcSB_RKT_RKT0_
FN:1374,_ZN7testing8internal8EqHelper7CompareIbbLPv0EEENS_15AssertionResultEPKcS6_RKT_RKT0_
FNDA:7,_ZN7testing8internal8EqHelper7CompareIbbLPv0EEENS_15AssertionResultEPKcS6_RKT_RKT0_
FN:1374,_ZN7testing8internal8EqHelper7CompareINSt7__cxx1112basic_stringIcSt11char_traitsIcESaIcEEEA5_cLPv0EEENS_15AssertionResultEPKcSD_RKT_RKT0_
FNDA:5,_ZN7testing8internal8EqHelper7CompareINSt7__cxx1112basic_stringIcSt11char_traitsIcESaIcEEEA5_cLPv0EEENS_15AssertionResultEPKcSD_RKT_RKT0_
FN:1374,_ZN7testing8internal8EqHelper7CompareINSt7__cxx1112basic_stringIcSt11char_traitsIcESaIcEEEA1_cLPv0EEENS_15AssertionResultEPKcSD_RKT_RKT0_
FNDA:2,_ZN7testing8internal8EqHelper7CompareINSt7__cxx1112basic_stringIcSt11char_traitsIcESaIcEEEA1_cLPv0EEENS_15AssertionResultEPKcSD_RKT_RKT0_
FN:1374,_ZN7testing8internal8EqHelper7CompareINSt7__cxx1112basic_stringIcSt11char_traitsIcESaIcEEES8_LPv0EEENS_15AssertionResultEPKcSC_RKT_RKT0_
FNDA:2,_ZN7testing8internal8EqHelper7CompareINSt7__cxx1112basic_stringIcSt11char_traitsIcESaIcEEES8_LPv0EEENS_15AssertionResultEPKcSC_RKT_RKT0_
FN:1374,_ZN7testing8internal8EqHelper7CompareINSt7__cxx1112basic_stringIcSt11char_traitsIcESaIcEEEA11_cLPv0EEENS_15AssertionResultEPKcSD_RKT_RKT0_
FNDA:2,_ZN7testing8internal8EqHelper7CompareINSt7__cxx1112basic_stringIcSt11char_traitsIcESaIcEEEA11_cLPv0EEENS_15AssertionResultEPKcSD_RKT_RKT0_
FN:1374,_ZN7testing8internal8EqHelper7CompareINSt7__cxx1112basic_stringIcSt11char_traitsIcESaIcEEEA9_cLPv0EEENS_15AssertionResultEPKcSD_RKT_RKT0_
FNDA:24,_ZN7testing8internal8EqHelper7CompareINSt7__cxx1112basic_stringIcSt11char_traitsIcESaIcEEEA9_cLPv0EEENS_15AssertionResultEPKcSD_RKT_RKT0_
FN:1374,_ZN7testing8internal8EqHelper7CompareIiiLPv0EEENS_15AssertionResultEPKcS6_RKT_RKT0_
FNDA:22,_ZN7testing8internal8EqHelper7CompareIiiLPv0EEENS_15AssertionResultEPKcS6_RKT_RKT0_
FN:2293,_Z13RUN_ALL_TESTSv
FNDA:1,_Z13RUN_ALL_TESTSv
DA:244,0
DA:252,0
DA:257,0
DA:258,0
DA:339,0
DA:1338,0
DA:1343,0
DA:1338,0
DA:1343,0
DA:1338,0
DA:1343,0
DA:1338,0
DA:1343,0
DA:1338,0
DA:1343,0
DA:1338,0
DA:1343,0
DA:1338,0
DA:1343,0
DA:1355,7
DA:1358,7
DA:1359,7
DA:1362,0
DA:1355,5
DA:1358,5
DA:1359,5
DA:1362,0
DA:1355,2
DA:1358,2
DA:1359,2
DA:1362,0
DA:1355,2
DA:1358,2
DA:1359,2
DA:1362,0
DA:1355,2
DA:1358,2
DA:1359,2
DA:1362,0
DA:1355,24
DA:1358,24
DA:1359,24
DA:1362,0
DA:1355,22
DA:1358,22
DA:1359,22
DA:1362,0
DA:1374,7
DA:1377,7
DA:1374,5
DA:1377,5
DA:1374,2
DA:1377,2
DA:1374,2
DA:1377,2
DA:1374,2
DA:1377,2
DA:1374,24
DA:1377,24
DA:1374,22
DA:1377,22
DA:2293,1
end_of_record
SF:/usr/include/c++/11/ext/new_allocator.h
FN:79,_ZN9__gnu_cxx13new_allocatorIcEC2Ev
FNDA:0,_ZN9__gnu_cxx13new_allocatorIcEC2Ev
FN:82,_ZN9__gnu_cxx13new_allocatorIcEC2ERKS1_
FNDA:0,_ZN9__gnu_cxx13new_allocatorIcEC2ERKS1_
FN:89,_ZN9__gnu_cxx13new_allocatorIcED2Ev
FNDA:0,_ZN9__gnu_cxx13new_allocatorIcED2Ev
DA:79,0
DA:82,0
DA:89,0
end_of_record
SF:/usr/include/c++/11/bits/alloc_traits.h
FN:562,_ZNSt16allocator_traitsISaIcEE37select_on_container_copy_constructionERKS0_
FNDA:0,_ZNSt16allocator_traitsISaIcEE37select_on_container_copy_constructionERKS0_
DA:562,0
DA:563,0
end_of_record
SF:/home/drakowkq/work/labs/lab1(bitArr)/lab1_tests.cpp
FN:7,_ZN36BitArrayTest_DefaultConstructor_TestC2Ev
FNDA:1,_ZN36BitArrayTest_DefaultConstructor_TestC2Ev
FN:7,_ZN36BitArrayTest_DefaultConstructor_Test8TestBodyEv
FNDA:1,_ZN36BitArrayTest_DefaultConstructor_Test8TestBodyEv
FN:7,_ZN36BitArrayTest_DefaultConstructor_TestD2Ev
FNDA:1,_ZN36BitArrayTest_DefaultConstructor_TestD2Ev
FN:7,_ZN36BitArrayTest_DefaultConstructor_TestD0Ev
FNDA:1,_ZN36BitArrayTest_DefaultConstructor_TestD0Ev
FN:13,_ZN44BitArrayTest_ConstructorWithInvalidSize_TestC2Ev
FNDA:1,_ZN44BitArrayTest_ConstructorWithInvalidSize_TestC2Ev
FN:13,_ZN44BitArrayTest_ConstructorWithInvalidSize_Test8TestBodyEv
FNDA:1,_ZN44BitArrayTest_ConstructorWithInvalidSize_Test8TestBodyEv
FN:13,_ZN44BitArrayTest_ConstructorWithInvalidSize_TestD2Ev
FNDA:1,_ZN44BitArrayTest_ConstructorWithInvalidSize_TestD2Ev
FN:13,_ZN44BitArrayTest_ConstructorWithInvalidSize_TestD0Ev
FNDA:1,_ZN44BitArrayTest_ConstructorWithInvalidSize_TestD0Ev
FN:17,_ZN49BitArrayTest_ConstructorWithSizeWithoutValue_TestC2Ev
FNDA:1,_ZN49BitArrayTest_ConstructorWithSizeWithoutValue_TestC2Ev
FN:17,_ZN49BitArrayTest_ConstructorWithSizeWithoutValue_Test8TestBodyEv
FNDA:1,_ZN49BitArrayTest_ConstructorWithSizeWithoutValue_Test8TestBodyEv
FN:17,_ZN49BitArrayTest_ConstructorWithSizeWithoutValue_TestD0Ev
FNDA:1,_ZN49BitArrayTest_ConstructorWithSizeWithoutValue_TestD0Ev
FN:17,_ZN49BitArrayTest_ConstructorWithSizeWithoutValue_TestD2Ev
FNDA:1,_ZN49BitArrayTest_ConstructorWithSizeWithoutValue_TestD2Ev
FN:23,_ZN45BitArrayTest_ConstructorWithSizeAndValue_TestC2Ev
FNDA:1,_ZN45BitArrayTest_ConstructorWithSizeAndValue_TestC2Ev
FN:23,_ZN45BitArrayTest_ConstructorWithSizeAndValue_Test8TestBodyEv
FNDA:1,_ZN45BitArrayTest_ConstructorWithSizeAndValue_Test8TestBodyEv
FN:23,_ZN45BitArrayTest_ConstructorWithSizeAndValue_TestD2Ev
FNDA:1,_ZN45BitArrayTest_ConstructorWithSizeAndValue_TestD2Ev
FN:23,_ZN45BitArrayTest_ConstructorWithSizeAndValue_TestD0Ev
FNDA:1,_ZN45BitArrayTest_ConstructorWithSizeAndValue_TestD0Ev
FN:32,_ZN33BitArrayTest_ConstructorCopy_Test8TestBodyEv
FNDA:1,_ZN33BitArrayTest_ConstructorCopy_Test8TestBodyEv
FN:32,_ZN33BitArrayTest_ConstructorCopy_TestD2Ev
FNDA:1,_ZN33BitArrayTest_ConstructorCopy_TestD2Ev
FN:32,_ZN33BitArrayTest_ConstructorCopy_TestD0Ev
FNDA:1,_ZN33BitArrayTest_ConstructorCopy_TestD0Ev
FN:32,_ZN33BitArrayTest_ConstructorCopy_TestC2Ev
FNDA:1,_ZN33BitArrayTest_ConstructorCopy_TestC2Ev
FN:41,_ZN22BitArrayTest_Swap_TestD0Ev
FNDA:1,_ZN22BitArrayTest_Swap_TestD0Ev
FN:41,_ZN22BitArrayTest_Swap_TestD2Ev
FNDA:1,_ZN22BitArrayTest_Swap_TestD2Ev
FN:41,_ZN22BitArrayTest_Swap_TestC2Ev
FNDA:1,_ZN22BitArrayTest_Swap_TestC2Ev
FN:41,_ZN22BitArrayTest_Swap_Test8TestBodyEv
FNDA:1,_ZN22BitArrayTest_Swap_Test8TestBodyEv
FN:49,_ZN27BitArrayTest_Assigment_TestC2Ev
FNDA:1,_ZN27BitArrayTest_Assigment_TestC2Ev
FN:49,_ZN27BitArrayTest_Assigment_Test8TestBodyEv
FNDA:1,_ZN27BitArrayTest_Assigment_Test8TestBodyEv
FN:49,_ZN27BitArrayTest_Assigment_TestD2Ev
FNDA:1,_ZN27BitArrayTest_Assigment_TestD2Ev
FN:49,_ZN27BitArrayTest_Assigment_TestD0Ev
FNDA:1,_ZN27BitArrayTest_Assigment_TestD0Ev
FN:56,_ZN29BitArrayTest_AssigmentEQ_TestC2Ev
FNDA:1,_ZN29BitArrayTest_AssigmentEQ_TestC2Ev
FN:56,_ZN29BitArrayTest_AssigmentEQ_TestD2Ev
FNDA:1,_ZN29BitArrayTest_AssigmentEQ_TestD2Ev
FN:56,_ZN29BitArrayTest_AssigmentEQ_TestD0Ev
FNDA:1,_ZN29BitArrayTest_AssigmentEQ_TestD0Ev
FN:56,_ZN29BitArrayTest_AssigmentEQ_Test8TestBodyEv
FNDA:1,_ZN29BitArrayTest_AssigmentEQ_Test8TestBodyEv
FN:64,_ZN33BitArrayTest_CheckResizeNull_TestD0Ev
FNDA:1,_ZN33BitArrayTest_CheckResizeNull_TestD0Ev
FN:64,_ZN33BitArrayTest_CheckResizeNull_TestD2Ev
FNDA:1,_ZN33BitArrayTest_CheckResizeNull_TestD2Ev
FN:64,_ZN33BitArrayTest_CheckResizeNull_Test8TestBodyEv
FNDA:1,_ZN33BitArrayTest_CheckResizeNull_Test8TestBodyEv
FN:64,_ZN33BitArrayTest_CheckResizeNull_TestC2Ev
FNDA:1,_ZN33BitArrayTest_CheckResizeNull_TestC2Ev
FN:71,_ZN41BitArrayTest_CheckResizeWithoutValue_TestC2Ev
FNDA:1,_ZN41BitArrayTest_CheckResizeWithoutValue_TestC2Ev
FN:71,_ZN41BitArrayTest_CheckResizeWithoutValue_TestD0Ev
FNDA:1,_ZN41BitArrayTest_CheckResizeWithoutValue_TestD0Ev
FN:71,_ZN41BitArrayTest_CheckResizeWithoutValue_TestD2Ev
FNDA:1,_ZN41BitArrayTest_CheckResizeWithoutValue_TestD2Ev
FN:71,_ZN41BitArrayTest_CheckResizeWithoutValue_Test8TestBodyEv
FNDA:1,_ZN41BitArrayTest_CheckResizeWithoutValue_Test8TestBodyEv
FN:81,_ZN38BitArrayTest_CheckResizeWithValue_TestC2Ev
FNDA:1,_ZN38BitArrayTest_CheckResizeWithValue_TestC2Ev
FN:81,_ZN38BitArrayTest_CheckResizeWithValue_TestD0Ev
FNDA:1,_ZN38BitArrayTest_CheckResizeWithValue_TestD0Ev
FN:81,_ZN38BitArrayTest_CheckResizeWithValue_TestD2Ev
FNDA:1,_ZN38BitArrayTest_CheckResizeWithValue_TestD2Ev
FN:81,_ZN38BitArrayTest_CheckResizeWithValue_Test8TestBodyEv
FNDA:1,_ZN38BitArrayTest_CheckResizeWithValue_Test8TestBodyEv
FN:90,_ZN44BitArrayTest_CheckResizeWithInvalidSize_Test8TestBodyEv
FNDA:1,_ZN44BitArrayTest_CheckResizeWithInvalidSize_Test8TestBodyEv
FN:90,_ZN44BitArrayTest_CheckResizeWithInvalidSize_TestD2Ev
FNDA:1,_ZN44BitArrayTest_CheckResizeWithInvalidSize_TestD2Ev
FN:90,_ZN44BitArrayTest_CheckResizeWithInvalidSize_TestD0Ev
FNDA:1,_ZN44BitArrayTest_CheckResizeWithInvalidSize_TestD0Ev
FN:90,_ZN44BitArrayTest_CheckResizeWithInvalidSize_TestC2Ev
FNDA:1,_ZN44BitArrayTest_CheckResizeWithInvalidSize_TestC2Ev
FN:95,_ZN28BitArrayTest_CheckClear_TestD2Ev
FNDA:1,_ZN28BitArrayTest_CheckClear_TestD2Ev
FN:95,_ZN28BitArrayTest_CheckClear_TestD0Ev
FNDA:1,_ZN28BitArrayTest_CheckClear_TestD0Ev
FN:95,_ZN28BitArrayTest_CheckClear_TestC2Ev
FNDA:1,_ZN28BitArrayTest_CheckClear_TestC2Ev
FN:95,_ZN28BitArrayTest_CheckClear_Test8TestBodyEv
FNDA:1,_ZN28BitArrayTest_CheckClear_Test8TestBodyEv
FN:102,_ZN31BitArrayTest_CheckPushBack_TestC2Ev
FNDA:1,_ZN31BitArrayTest_CheckPushBack_TestC2Ev
FN:102,_ZN31BitArrayTest_CheckPushBack_TestD2Ev
FNDA:1,_ZN31BitArrayTest_CheckPushBack_TestD2Ev
FN:102,_ZN31BitArrayTest_CheckPushBack_TestD0Ev
FNDA:1,_ZN31BitArrayTest_CheckPushBack_TestD0Ev
FN:102,_ZN31BitArrayTest_CheckPushBack_Test8TestBodyEv
FNDA:1,_ZN31BitArrayTest_CheckPushBack_Test8TestBodyEv
FN:110,_ZN47BitArrayTest_CheckANDAssignInvalidArgument_TestD2Ev
FNDA:1,_ZN47BitArrayTest_CheckANDAssignInvalidArgument_TestD2Ev
FN:110,_ZN47BitArrayTest_CheckANDAssignInvalidArgument_TestD0Ev
FNDA:1,_ZN47BitArrayTest_CheckANDAssignInvalidArgument_TestD0Ev
FN:110,_ZN47BitArrayTest_CheckANDAssignInvalidArgument_Test8TestBodyEv
FNDA:1,_ZN47BitArrayTest_CheckANDAssignInvalidArgument_Test8TestBodyEv
FN:110,_ZN47BitArrayTest_CheckANDAssignInvalidArgument_TestC2Ev
FNDA:1,_ZN47BitArrayTest_CheckANDAssignInvalidArgument_TestC2Ev
FN:116,_ZN32BitArrayTest_CheckANDAssign_Test8TestBodyEv
FNDA:1,_ZN32BitArrayTest_CheckANDAssign_Test8TestBodyEv
FN:116,_ZN32BitArrayTest_CheckANDAssign_TestD2Ev
FNDA:1,_ZN32BitArrayTest_CheckANDAssign_TestD2Ev
FN:116,_ZN32BitArrayTest_CheckANDAssign_TestD0Ev
FNDA:1,_ZN32BitArrayTest_CheckANDAssign_TestD0Ev
FN:116,_ZN32BitArrayTest_CheckANDAssign_TestC2Ev
FNDA:1,_ZN32BitArrayTest_CheckANDAssign_TestC2Ev
FN:123,_ZN46BitArrayTest_CheckORAssignInvalidArgument_TestD0Ev
FNDA:1,_ZN46BitArrayTest_CheckORAssignInvalidArgument_TestD0Ev
FN:123,_ZN46BitArrayTest_CheckORAssignInvalidArgument_Test8TestBodyEv
FNDA:1,_ZN46BitArrayTest_CheckORAssignInvalidArgument_Test8TestBodyEv
FN:123,_ZN46BitArrayTest_CheckORAssignInvalidArgument_TestC2Ev
FNDA:1,_ZN46BitArrayTest_CheckORAssignInvalidArgument_TestC2Ev
FN:123,_ZN46BitArrayTest_CheckORAssignInvalidArgument_TestD2Ev
FNDA:1,_ZN46BitArrayTest_CheckORAssignInvalidArgument_TestD2Ev
FN:129,_ZN31BitArrayTest_CheckORAssign_TestD0Ev
FNDA:1,_ZN31BitArrayTest_CheckORAssign_TestD0Ev
FN:129,_ZN31BitArrayTest_CheckORAssign_TestD2Ev
FNDA:1,_ZN31BitArrayTest_CheckORAssign_TestD2Ev
FN:129,_ZN31BitArrayTest_CheckORAssign_Test8TestBodyEv
FNDA:1,_ZN31BitArrayTest_CheckORAssign_Test8TestBodyEv
FN:129,_ZN31BitArrayTest_CheckORAssign_TestC2Ev
FNDA:1,_ZN31BitArrayTest_CheckORAssign_TestC2Ev
FN:135,_ZN47BitArrayTest_CheckXORAssignInvalidArgument_Test8TestBodyEv
FNDA:1,_ZN47BitArrayTest_CheckXORAssignInvalidArgument_Test8TestBodyEv
FN:135,_ZN47BitArrayTest_CheckXORAssignInvalidArgument_TestC2Ev
FNDA:1,_ZN47BitArrayTest_CheckXORAssignInvalidArgument_TestC2Ev
FN:135,_ZN47BitArrayTest_CheckXORAssignInvalidArgument_TestD0Ev
FNDA:1,_ZN47BitArrayTest_CheckXORAssignInvalidArgument_TestD0Ev
FN:135,_ZN47BitArrayTest_CheckXORAssignInvalidArgument_TestD2Ev
FNDA:1,_ZN47BitArrayTest_CheckXORAssignInvalidArgument_TestD2Ev
FN:141,_ZN32BitArrayTest_CheckXORAssign_Test8TestBodyEv
FNDA:1,_ZN32BitArrayTest_CheckXORAssign_Test8TestBodyEv
FN:141,_ZN32BitArrayTest_CheckXORAssign_TestC2Ev
FNDA:1,_ZN32BitArrayTest_CheckXORAssign_TestC2Ev
FN:141,_ZN32BitArrayTest_CheckXORAssign_TestD0Ev
FNDA:1,_ZN32BitArrayTest_CheckXORAssign_TestD0Ev
FN:141,_ZN32BitArrayTest_CheckXORAssign_TestD2Ev
FNDA:1,_ZN32BitArrayTest_CheckXORAssign_TestD2Ev
FN:150,_ZN56BitArrayTest_CheckLeftShiftAndAssignWithIvalidIndex_Test8TestBodyEv
FNDA:1,_ZN56BitArrayTest_CheckLeftShiftAndAssignWithIvalidIndex_Test8TestBodyEv
FN:150,_ZN56BitArrayTest_CheckLeftShiftAndAssignWithIvalidIndex_TestD0Ev
FNDA:1,_ZN56BitArrayTest_CheckLeftShiftAndAssignWithIvalidIndex_TestD0Ev
FN:150,_ZN56BitArrayTest_CheckLeftShiftAndAssignWithIvalidIndex_TestD2Ev
FNDA:1,_ZN56BitArrayTest_CheckLeftShiftAndAssignWithIvalidIndex_TestD2Ev
FN:150,_ZN56BitArrayTest_CheckLeftShiftAndAssignWithIvalidIndex_TestC2Ev
FNDA:1,_ZN56BitArrayTest_CheckLeftShiftAndAssignWithIvalidIndex_TestC2Ev
FN:155,_ZN41BitArrayTest_CheckLeftShiftAndAssign_TestC2Ev
FNDA:1,_ZN41BitArrayTest_CheckLeftShiftAndAssign_TestC2Ev
FN:155,_ZN41BitArrayTest_CheckLeftShiftAndAssign_Test8TestBodyEv
FNDA:1,_ZN41BitArrayTest_CheckLeftShiftAndAssign_Test8TestBodyEv
FN:155,_ZN41BitArrayTest_CheckLeftShiftAndAssign_TestD2Ev
FNDA:1,_ZN41BitArrayTest_CheckLeftShiftAndAssign_TestD2Ev
FN:155,_ZN41BitArrayTest_CheckLeftShiftAndAssign_TestD0Ev
FNDA:1,_ZN41BitArrayTest_CheckLeftShiftAndAssign_TestD0Ev
FN:165,_ZN57BitArrayTest_CheckRightShiftAndAssignWithIvalidIndex_TestC2Ev
FNDA:1,_ZN57BitArrayTest_CheckRightShiftAndAssignWithIvalidIndex_TestC2Ev
FN:165,_ZN57BitArrayTest_CheckRightShiftAndAssignWithIvalidIndex_Test8TestBodyEv
FNDA:1,_ZN57BitArrayTest_CheckRightShiftAndAssignWithIvalidIndex_Test8TestBodyEv
FN:165,_ZN57BitArrayTest_CheckRightShiftAndAssignWithIvalidIndex_TestD2Ev
FNDA:1,_ZN57BitArrayTest_CheckRightShiftAndAssignWithIvalidIndex_TestD2Ev
FN:165,_ZN57BitArrayTest_CheckRightShiftAndAssignWithIvalidIndex_TestD0Ev
FNDA:1,_ZN57BitArrayTest_CheckRightShiftAndAssignWithIvalidIndex_TestD0Ev
FN:170,_ZN42BitArrayTest_CheckRightShiftAndAssign_Test8TestBodyEv
FNDA:1,_ZN42BitArrayTest_CheckRightShiftAndAssign_Test8TestBodyEv
FN:170,_ZN42BitArrayTest_CheckRightShiftAndAssign_TestD2Ev
FNDA:1,_ZN42BitArrayTest_CheckRightShiftAndAssign_TestD2Ev
FN:170,_ZN42BitArrayTest_CheckRightShiftAndAssign_TestD0Ev
FNDA:1,_ZN42BitArrayTest_CheckRightShiftAndAssign_TestD0Ev
FN:170,_ZN42BitArrayTest_CheckRightShiftAndAssign_TestC2Ev
FNDA:1,_ZN42BitArrayTest_CheckRightShiftAndAssign_TestC2Ev
FN:179,_ZN48BitArrayTest_CheckLeftShiftWithInvalidIndex_TestC2Ev
FNDA:1,_ZN48BitArrayTest_CheckLeftShiftWithInvalidIndex_TestC2Ev
FN:179,_ZN48BitArrayTest_CheckLeftShiftWithInvalidIndex_TestD0Ev
FNDA:1,_ZN48BitArrayTest_CheckLeftShiftWithInvalidIndex_TestD0Ev
FN:179,_ZN48BitArrayTest_CheckLeftShiftWithInvalidIndex_TestD2Ev
FNDA:1,_ZN48BitArrayTest_CheckLeftShiftWithInvalidIndex_TestD2Ev
FN:179,_ZN48BitArrayTest_CheckLeftShiftWithInvalidIndex_Test8TestBodyEv
FNDA:1,_ZN48BitArrayTest_CheckLeftShiftWithInvalidIndex_Test8TestBodyEv
FN:184,_ZN32BitArrayTest_CheckLeftShift_TestD0Ev
FNDA:1,_ZN32BitArrayTest_CheckLeftShift_TestD0Ev
FN:184,_ZN32BitArrayTest_CheckLeftShift_TestD2Ev
FNDA:1,_ZN32BitArrayTest_CheckLeftShift_TestD2Ev
FN:184,_ZN32BitArrayTest_CheckLeftShift_Test8TestBodyEv
FNDA:1,_ZN32BitArrayTest_CheckLeftShift_Test8TestBodyEv
FN:184,_ZN32BitArrayTest_CheckLeftShift_TestC2Ev
FNDA:1,_ZN32BitArrayTest_CheckLeftShift_TestC2Ev
FN:190,_ZN50BitArrayTest_CheckRighttShiftWithInvalidIndex_Test8TestBodyEv
FNDA:1,_ZN50BitArrayTest_CheckRighttShiftWithInvalidIndex_Test8TestBodyEv
FN:190,_ZN50BitArrayTest_CheckRighttShiftWithInvalidIndex_TestC2Ev
FNDA:1,_ZN50BitArrayTest_CheckRighttShiftWithInvalidIndex_TestC2Ev
FN:190,_ZN50BitArrayTest_CheckRighttShiftWithInvalidIndex_TestD2Ev
FNDA:1,_ZN50BitArrayTest_CheckRighttShiftWithInvalidIndex_TestD2Ev
FN:190,_ZN50BitArrayTest_CheckRighttShiftWithInvalidIndex_TestD0Ev
FNDA:1,_ZN50BitArrayTest_CheckRighttShiftWithInvalidIndex_TestD0Ev
FN:195,_ZN33BitArrayTest_CheckRightShift_TestD2Ev
FNDA:1,_ZN33BitArrayTest_CheckRightShift_TestD2Ev
FN:195,_ZN33BitArrayTest_CheckRightShift_TestD0Ev
FNDA:1,_ZN33BitArrayTest_CheckRightShift_TestD0Ev
FN:195,_ZN33BitArrayTest_CheckRightShift_TestC2Ev
FNDA:1,_ZN33BitArrayTest_CheckRightShift_TestC2Ev
FN:195,_ZN33BitArrayTest_CheckRightShift_Test8TestBodyEv
FNDA:1,_ZN33BitArrayTest_CheckRightShift_Test8TestBodyEv
FN:203,_ZN45BitArrayTest_CheckSetOneWithInvalidIndex_TestC2Ev
FNDA:1,_ZN45BitArrayTest_CheckSetOneWithInvalidIndex_TestC2Ev
FN:203,_ZN45BitArrayTest_CheckSetOneWithInvalidIndex_TestD2Ev
FNDA:1,_ZN45BitArrayTest_CheckSetOneWithInvalidIndex_TestD2Ev
FN:203,_ZN45BitArrayTest_CheckSetOneWithInvalidIndex_Test8TestBodyEv
FNDA:1,_ZN45BitArrayTest_CheckSetOneWithInvalidIndex_Test8TestBodyEv
FN:203,_ZN45BitArrayTest_CheckSetOneWithInvalidIndex_TestD0Ev
FNDA:1,_ZN45BitArrayTest_CheckSetOneWithInvalidIndex_TestD0Ev
FN:209,_ZN29BitArrayTest_CheckSetOne_Test8TestBodyEv
FNDA:1,_ZN29BitArrayTest_CheckSetOne_Test8TestBodyEv
FN:209,_ZN29BitArrayTest_CheckSetOne_TestD2Ev
FNDA:1,_ZN29BitArrayTest_CheckSetOne_TestD2Ev
FN:209,_ZN29BitArrayTest_CheckSetOne_TestD0Ev
FNDA:1,_ZN29BitArrayTest_CheckSetOne_TestD0Ev
FN:209,_ZN29BitArrayTest_CheckSetOne_TestC2Ev
FNDA:1,_ZN29BitArrayTest_CheckSetOne_TestC2Ev
FN:217,_ZN29BitArrayTest_CheckSetAll_Test8TestBodyEv
FNDA:1,_ZN29BitArrayTest_CheckSetAll_Test8TestBodyEv
FN:217,_ZN29BitArrayTest_CheckSetAll_TestD2Ev
FNDA:1,_ZN29BitArrayTest_CheckSetAll_TestD2Ev
FN:217,_ZN29BitArrayTest_CheckSetAll_TestD0Ev
FNDA:1,_ZN29BitArrayTest_CheckSetAll_TestD0Ev
FN:217,_ZN29BitArrayTest_CheckSetAll_TestC2Ev
FNDA:1,_ZN29BitArrayTest_CheckSetAll_TestC2Ev
FN:224,_ZN47BitArrayTest_CheckResetOneWithInvalidIndex_Test8TestBodyEv
FNDA:1,_ZN47BitArrayTest_CheckResetOneWithInvalidIndex_Test8TestBodyEv
FN:224,_ZN47BitArrayTest_CheckResetOneWithInvalidIndex_TestD0Ev
FNDA:1,_ZN47BitArrayTest_CheckResetOneWithInvalidIndex_TestD0Ev
FN:224,_ZN47BitArrayTest_CheckResetOneWithInvalidIndex_TestC2Ev
FNDA:1,_ZN47BitArrayTest_CheckResetOneWithInvalidIndex_TestC2Ev
FN:224,_ZN47BitArrayTest_CheckResetOneWithInvalidIndex_TestD2Ev
FNDA:1,_ZN47BitArrayTest_CheckResetOneWithInvalidIndex_TestD2Ev
FN:230,_ZN31BitArrayTest_CheckResetOne_TestC2Ev
FNDA:1,_ZN31BitArrayTest_CheckResetOne_TestC2Ev
FN:230,_ZN31BitArrayTest_CheckResetOne_TestD2Ev
FNDA:1,_ZN31BitArrayTest_CheckResetOne_TestD2Ev
FN:230,_ZN31BitArrayTest_CheckResetOne_TestD0Ev
FNDA:1,_ZN31BitArrayTest_CheckResetOne_TestD0Ev
FN:230,_ZN31BitArrayTest_CheckResetOne_Test8TestBodyEv
FNDA:1,_ZN31BitArrayTest_CheckResetOne_Test8TestBodyEv
FN:238,_ZN31BitArrayTest_CheckResetAll_TestC2Ev
FNDA:1,_ZN31BitArrayTest_CheckResetAll_TestC2Ev
FN:238,_ZN31BitArrayTest_CheckResetAll_TestD2Ev
FNDA:1,_ZN31BitArrayTest_CheckResetAll_TestD2Ev
FN:238,_ZN31BitArrayTest_CheckResetAll_TestD0Ev
FNDA:1,_ZN31BitArrayTest_CheckResetAll_TestD0Ev
FN:238,_ZN31BitArrayTest_CheckResetAll_Test8TestBodyEv
FNDA:1,_ZN31BitArrayTest_CheckResetAll_Test8TestBodyEv
FN:245,_ZN26BitArrayTest_CheckAny_TestC2Ev
FNDA:1,_ZN26BitArrayTest_CheckAny_TestC2Ev
FN:245,_ZN26BitArrayTest_CheckAny_TestD2Ev
FNDA:1,_ZN26BitArrayTest_CheckAny_TestD2Ev
FN:245,_ZN26BitArrayTest_CheckAny_TestD0Ev
FNDA:1,_ZN26BitArrayTest_CheckAny_TestD0Ev
FN:245,_ZN26BitArrayTest_CheckAny_Test8TestBodyEv
FNDA:1,_ZN26BitArrayTest_CheckAny_Test8TestBodyEv
FN:258,_ZN27BitArrayTest_CheckNone_TestD0Ev
FNDA:1,_ZN27BitArrayTest_CheckNone_TestD0Ev
FN:258,_ZN27BitArrayTest_CheckNone_Test8TestBodyEv
FNDA:1,_ZN27BitArrayTest_CheckNone_Test8TestBodyEv
FN:258,_ZN27BitArrayTest_CheckNone_TestC2Ev
FNDA:1,_ZN27BitArrayTest_CheckNone_TestC2Ev
FN:258,_ZN27BitArrayTest_CheckNone_TestD2Ev
FNDA:1,_ZN27BitArrayTest_CheckNone_TestD2Ev
FN:271,_ZN29BitArrayTest_CheckInvert_Test8TestBodyEv
FNDA:1,_ZN29BitArrayTest_CheckInvert_Test8TestBodyEv
FN:271,_ZN29BitArrayTest_CheckInvert_TestC2Ev
FNDA:1,_ZN29BitArrayTest_CheckInvert_TestC2Ev
FN:271,_ZN29BitArrayTest_CheckInvert_TestD0Ev
FNDA:1,_ZN29BitArrayTest_CheckInvert_TestD0Ev
FN:271,_ZN29BitArrayTest_CheckInvert_TestD2Ev
FNDA:1,_ZN29BitArrayTest_CheckInvert_TestD2Ev
FN:276,_ZN28BitArrayTest_CheckCount_TestC2Ev
FNDA:1,_ZN28BitArrayTest_CheckCount_TestC2Ev
FN:276,_ZN28BitArrayTest_CheckCount_Test8TestBodyEv
FNDA:1,_ZN28BitArrayTest_CheckCount_Test8TestBodyEv
FN:276,_ZN28BitArrayTest_CheckCount_TestD0Ev
FNDA:1,_ZN28BitArrayTest_CheckCount_TestD0Ev
FN:276,_ZN28BitArrayTest_CheckCount_TestD2Ev
FNDA:1,_ZN28BitArrayTest_CheckCount_TestD2Ev
FN:284,_ZN28BitArrayTest_CheckIndex_Test8TestBodyEv
FNDA:1,_ZN28BitArrayTest_CheckIndex_Test8TestBodyEv
FN:284,_ZN28BitArrayTest_CheckIndex_TestC2Ev
FNDA:1,_ZN28BitArrayTest_CheckIndex_TestC2Ev
FN:284,_ZN28BitArrayTest_CheckIndex_TestD0Ev
FNDA:1,_ZN28BitArrayTest_CheckIndex_TestD0Ev
FN:284,_ZN28BitArrayTest_CheckIndex_TestD2Ev
FNDA:1,_ZN28BitArrayTest_CheckIndex_TestD2Ev
FN:293,_ZN27BitArrayTest_CheckSize_Test8TestBodyEv
FNDA:1,_ZN27BitArrayTest_CheckSize_Test8TestBodyEv
FN:293,_ZN27BitArrayTest_CheckSize_TestD0Ev
FNDA:1,_ZN27BitArrayTest_CheckSize_TestD0Ev
FN:293,_ZN27BitArrayTest_CheckSize_TestC2Ev
FNDA:1,_ZN27BitArrayTest_CheckSize_TestC2Ev
FN:293,_ZN27BitArrayTest_CheckSize_TestD2Ev
FNDA:1,_ZN27BitArrayTest_CheckSize_TestD2Ev
FN:300,_ZN28BitArrayTest_CheckEmpty_TestD0Ev
FNDA:1,_ZN28BitArrayTest_CheckEmpty_TestD0Ev
FN:300,_ZN28BitArrayTest_CheckEmpty_Test8TestBodyEv
FNDA:1,_ZN28BitArrayTest_CheckEmpty_Test8TestBodyEv
FN:300,_ZN28BitArrayTest_CheckEmpty_TestD2Ev
FNDA:1,_ZN28BitArrayTest_CheckEmpty_TestD2Ev
FN:300,_ZN28BitArrayTest_CheckEmpty_TestC2Ev
FNDA:1,_ZN28BitArrayTest_CheckEmpty_TestC2Ev
FN:307,_ZN31BitArrayTest_CheckToString_TestD0Ev
FNDA:1,_ZN31BitArrayTest_CheckToString_TestD0Ev
FN:307,_ZN31BitArrayTest_CheckToString_TestD2Ev
FNDA:1,_ZN31BitArrayTest_CheckToString_TestD2Ev
FN:307,_ZN31BitArrayTest_CheckToString_TestC2Ev
FNDA:1,_ZN31BitArrayTest_CheckToString_TestC2Ev
FN:307,_ZN31BitArrayTest_CheckToString_Test8TestBodyEv
FNDA:1,_ZN31BitArrayTest_CheckToString_Test8TestBodyEv
FN:312,_ZN30BitArrayTest_CheckEqually_TestC2Ev
FNDA:1,_ZN30BitArrayTest_CheckEqually_TestC2Ev
FN:312,_ZN30BitArrayTest_CheckEqually_TestD2Ev
FNDA:1,_ZN30BitArrayTest_CheckEqually_TestD2Ev
FN:312,_ZN30BitArrayTest_CheckEqually_TestD0Ev
FNDA:1,_ZN30BitArrayTest_CheckEqually_TestD0Ev
FN:312,_ZN30BitArrayTest_CheckEqually_Test8TestBodyEv
FNDA:1,_ZN30BitArrayTest_CheckEqually_Test8TestBodyEv
FN:320,_ZN33BitArrayTest_CheckNotEqually_TestD0Ev
FNDA:1,_ZN33BitArrayTest_CheckNotEqually_TestD0Ev
FN:320,_ZN33BitArrayTest_CheckNotEqually_TestD2Ev
FNDA:1,_ZN33BitArrayTest_CheckNotEqually_TestD2Ev
FN:320,_ZN33BitArrayTest_CheckNotEqually_Test8TestBodyEv
FNDA:1,_ZN33BitArrayTest_CheckNotEqually_Test8TestBodyEv
FN:320,_ZN33BitArrayTest_CheckNotEqually_TestC2Ev
FNDA:1,_ZN33BitArrayTest_CheckNotEqually_TestC2Ev
FN:328,_ZN39BitArrayTest_CheckANDWithDiffSizes_TestD0Ev
FNDA:1,_ZN39BitArrayTest_CheckANDWithDiffSizes_TestD0Ev
FN:328,_ZN39BitArrayTest_CheckANDWithDiffSizes_TestD2Ev
FNDA:1,_ZN39BitArrayTest_CheckANDWithDiffSizes_TestD2Ev
FN:328,_ZN39BitArrayTest_CheckANDWithDiffSizes_Test8TestBodyEv
FNDA:1,_ZN39BitArrayTest_CheckANDWithDiffSizes_Test8TestBodyEv
FN:328,_ZN39BitArrayTest_CheckANDWithDiffSizes_TestC2Ev
FNDA:1,_ZN39BitArrayTest_CheckANDWithDiffSizes_TestC2Ev
FN:334,_ZN26BitArrayTest_CheckAND_TestD0Ev
FNDA:1,_ZN26BitArrayTest_CheckAND_TestD0Ev
FN:334,_ZN26BitArrayTest_CheckAND_TestD2Ev
FNDA:1,_ZN26BitArrayTest_CheckAND_TestD2Ev
FN:334,_ZN26BitArrayTest_CheckAND_Test8TestBodyEv
FNDA:1,_ZN26BitArrayTest_CheckAND_Test8TestBodyEv
FN:334,_ZN26BitArrayTest_CheckAND_TestC2Ev
FNDA:1,_ZN26BitArrayTest_CheckAND_TestC2Ev
FN:340,_ZN38BitArrayTest_CheckORWithDiffSizes_TestD2Ev
FNDA:1,_ZN38BitArrayTest_CheckORWithDiffSizes_TestD2Ev
FN:340,_ZN38BitArrayTest_CheckORWithDiffSizes_TestD0Ev
FNDA:1,_ZN38BitArrayTest_CheckORWithDiffSizes_TestD0Ev
FN:340,_ZN38BitArrayTest_CheckORWithDiffSizes_TestC2Ev
FNDA:1,_ZN38BitArrayTest_CheckORWithDiffSizes_TestC2Ev
FN:340,_ZN38BitArrayTest_CheckORWithDiffSizes_Test8TestBodyEv
FNDA:1,_ZN38BitArrayTest_CheckORWithDiffSizes_Test8TestBodyEv
FN:346,_ZN25BitArrayTest_CheckOR_TestD2Ev
FNDA:1,_ZN25BitArrayTest_CheckOR_TestD2Ev
FN:346,_ZN25BitArrayTest_CheckOR_TestC2Ev
FNDA:1,_ZN25BitArrayTest_CheckOR_TestC2Ev
FN:346,_ZN25BitArrayTest_CheckOR_Test8TestBodyEv
FNDA:1,_ZN25BitArrayTest_CheckOR_Test8TestBodyEv
FN:346,_ZN25BitArrayTest_CheckOR_TestD0Ev
FNDA:1,_ZN25BitArrayTest_CheckOR_TestD0Ev
FN:351,_ZN39BitArrayTest_CheckXORWithDiffSizes_TestD2Ev
FNDA:1,_ZN39BitArrayTest_CheckXORWithDiffSizes_TestD2Ev
FN:351,_ZN39BitArrayTest_CheckXORWithDiffSizes_TestD0Ev
FNDA:1,_ZN39BitArrayTest_CheckXORWithDiffSizes_TestD0Ev
FN:351,_ZN39BitArrayTest_CheckXORWithDiffSizes_TestC2Ev
FNDA:1,_ZN39BitArrayTest_CheckXORWithDiffSizes_TestC2Ev
FN:351,_ZN39BitArrayTest_CheckXORWithDiffSizes_Test8TestBodyEv
FNDA:1,_ZN39BitArrayTest_CheckXORWithDiffSizes_Test8TestBodyEv
FN:357,_ZN26BitArrayTest_CheckXOR_TestD2Ev
FNDA:1,_ZN26BitArrayTest_CheckXOR_TestD2Ev
FN:357,_ZN26BitArrayTest_CheckXOR_TestD0Ev
FNDA:1,_ZN26BitArrayTest_CheckXOR_TestD0Ev
FN:357,_ZN26BitArrayTest_CheckXOR_TestC2Ev
FNDA:1,_ZN26BitArrayTest_CheckXOR_TestC2Ev
FN:357,_ZN26BitArrayTest_CheckXOR_Test8TestBodyEv
FNDA:1,_ZN26BitArrayTest_CheckXOR_Test8TestBodyEv
FN:363,main
FNDA:1,main
DA:7,1
DA:7,1
DA:7,1
DA:7,1
DA:8,1
DA:9,1
DA:10,1
DA:11,1
DA:13,1
DA:13,1
DA:13,1
DA:13,1
DA:14,2
DA:17,1
DA:17,1
DA:17,1
DA:17,1
DA:18,1
DA:19,1
DA:20,1
DA:21,1
DA:23,1
DA:23,1
DA:23,1
DA:23,1
DA:24,1
DA:25,1
DA:26,1
DA:27,1
DA:28,1
DA:29,2
DA:30,1
DA:32,1
DA:32,1
DA:32,1
DA:32,1
DA:33,1
DA:34,1
DA:35,1
DA:36,1
DA:37,1
DA:38,2
DA:39,1
DA:41,1
DA:41,1
DA:41,1
DA:41,1
DA:42,1
DA:43,1
DA:44,1
DA:45,2
DA:46,2
DA:47,1
DA:49,1
DA:49,1
DA:49,1
DA:49,1
DA:50,1
DA:51,1
DA:52,1
DA:53,2
DA:54,1
DA:56,1
DA:56,1
DA:56,1
DA:56,1
DA:57,1
DA:58,1
DA:59,1
DA:60,1
DA:61,2
DA:62,1
DA:64,1
DA:64,1
DA:64,1
DA:64,1
DA:65,1
DA:66,1
DA:67,1
DA:68,2
DA:69,1
DA:71,1
DA:71,1
DA:71,1
DA:71,1
DA:72,1
DA:73,1
DA:74,2
DA:75,1
DA:76,1
DA:77,2
DA:78,1
DA:79,1
DA:81,1
DA:81,1
DA:81,1
DA:81,1
DA:82,1
DA:83,1
DA:84,2
DA:85,1
DA:86,1
DA:87,2
DA:88,1
DA:89,1
DA:90,1
DA:90,1
DA:90,1
DA:90,1
DA:91,1
DA:92,1
DA:93,1
DA:95,1
DA:95,1
DA:95,1
DA:95,1
DA:96,1
DA:97,1
DA:98,1
DA:99,2
DA:100,1
DA:102,1
DA:102,1
DA:102,1
DA:102,1
DA:103,1
DA:104,1
DA:105,1
DA:106,1
DA:107,2
DA:108,1
DA:110,1
DA:110,1
DA:110,1
DA:110,1
DA:111,1
DA:112,1
DA:113,1
DA:114,1
DA:116,1
DA:116,1
DA:116,1
DA:116,1
DA:117,1
DA:118,1
DA:119,1
DA:120,2
DA:121,1
DA:123,1
DA:123,1
DA:123,1
DA:123,1
DA:124,1
DA:125,1
DA:126,1
DA:127,1
DA:129,1
DA:129,1
DA:129,1
DA:129,1
DA:130,1
DA:131,1
DA:132,1
DA:133,2
DA:134,1
DA:135,1
DA:135,1
DA:135,1
DA:135,1
DA:136,1
DA:137,1
DA:138,1
DA:139,1
DA:141,1
DA:141,1
DA:141,1
DA:141,1
DA:142,1
DA:143,1
DA:144,1
DA:145,2
DA:146,1
DA:150,1
DA:150,1
DA:150,1
DA:150,1
DA:151,1
DA:152,1
DA:153,1
DA:155,1
DA:155,1
DA:155,1
DA:155,1
DA:156,1
DA:157,2
DA:158,1
DA:159,2
DA:160,1
DA:161,2
DA:162,1
DA:165,1
DA:165,1
DA:165,1
DA:165,1
DA:166,1
DA:167,1
DA:168,1
DA:170,1
DA:170,1
DA:170,1
DA:170,1
DA:171,1
DA:172,2
DA:173,1
DA:174,2
DA:175,1
DA:176,2
DA:177,1
DA:179,1
DA:179,1
DA:179,1
DA:179,1
DA:180,1
DA:181,1
DA:182,1
DA:184,1
DA:184,1
DA:184,1
DA:184,1
DA:185,1
DA:186,2
DA:187,2
DA:188,1
DA:190,1
DA:190,1
DA:190,1
DA:190,1
DA:191,1
DA:192,1
DA:193,1
DA:195,1
DA:195,1
DA:195,1
DA:195,1
DA:196,1
DA:197,2
DA:198,2
DA:199,1
DA:203,1
DA:203,1
DA:203,1
DA:203,1
DA:204,1
DA:205,1
DA:206,1
DA:207,1
DA:209,1
DA:209,1
DA:209,1
DA:209,1
DA:210,1
DA:211,1
DA:212,1
DA:213,1
DA:214,2
DA:215,1
DA:217,1
DA:217,1
DA:217,1
DA:217,1
DA:218,1
DA:219,1
DA:220,1
DA:221,2
DA:222,1
DA:224,1
DA:224,1
DA:224,1
DA:224,1
DA:225,1
DA:226,1
DA:227,1
DA:228,1
DA:230,1
DA:230,1
DA:230,1
DA:230,1
DA:231,1
DA:232,1
DA:233,1
DA:234,1
DA:235,2
DA:236,1
DA:238,1
DA:238,1
DA:238,1
DA:238,1
DA:239,1
DA:240,1
DA:241,1
DA:242,2
DA:243,1
DA:245,1
DA:245,1
DA:245,1
DA:245,1
DA:246,1
DA:247,1
DA:249,1
DA:250,1
DA:251,1
DA:253,1
DA:254,1
DA:255,1
DA:256,1
DA:258,1
DA:258,1
DA:258,1
DA:258,1
DA:259,1
DA:260,1
DA:262,1
DA:263,1
DA:264,1
DA:266,1
DA:267,1
DA:268,1
DA:269,1
DA:271,1
DA:271,1
DA:271,1
DA:271,1
DA:272,1
DA:273,2
DA:274,1
DA:276,1
DA:276,1
DA:276,1
DA:276,1
DA:277,1
DA:278,1
DA:279,1
DA:280,1
DA:281,1
DA:282,1
DA:284,1
DA:284,1
DA:284,1
DA:284,1
DA:285,1
DA:286,1
DA:287,1
DA:288,1
DA:289,1
DA:290,1
DA:291,1
DA:293,1
DA:293,1
DA:293,1
DA:293,1
DA:294,1
DA:295,1
DA:296,1
DA:297,1
DA:298,1
DA:300,1
DA:300,1
DA:300,1
DA:300,1
DA:301,1
DA:302,1
DA:303,1
DA:304,1
DA:305,1
DA:307,1
DA:307,1
DA:307,1
DA:307,1
DA:308,1
DA:309,2
DA:310,1
DA:312,1
DA:312,1
DA:312,1
DA:312,1
DA:313,1
DA:314,1
DA:315,1
DA:316,1
DA:317,1
DA:318,1
DA:320,1
DA:320,1
DA:320,1
DA:320,1
DA:321,1
DA:322,1
DA:323,1
DA:324,1
DA:325,1
DA:326,1
DA:328,1
DA:328,1
DA:328,1
DA:328,1
DA:329,1
DA:330,1
DA:331,1
DA:332,1
DA:334,1
DA:334,1
DA:334,1
DA:334,1
DA:335,1
DA:336,1
DA:337,2
DA:338,1
DA:340,1
DA:340,1
DA:340,1
DA:340,1
DA:341,1
DA:342,1
DA:343,1
DA:344,1
DA:346,1
DA:346,1
DA:346,1
DA:346,1
DA:347,1
DA:348,1
DA:349,2
DA:350,1
DA:351,1
DA:351,1
DA:351,1
DA:351,1
DA:352,1
DA:353,1
DA:354,1
DA:355,1
DA:357,1
DA:357,1
DA:357,1
DA:357,1
DA:358,1
DA:359,1
DA:360,2
DA:361,1
DA:363,1
DA:364,1
DA:365,1
end_of_record
SF:/usr/include/c++/11/tuple
FN:80,_ZNSt10_Head_baseILm1ESt14default_deleteINSt7__cxx1112basic_stringIcSt11char_traitsIcESaIcEEEELb1EEC2Ev
FNDA:78,_ZNSt10_Head_baseILm1ESt14default_deleteINSt7__cxx1112basic_stringIcSt11char_traitsIcESaIcEEEELb1EEC2Ev
FN:124,_ZNSt10_Head_baseILm1ESt14default_deleteINSt7__cxx1118basic_stringstreamIcSt11char_traitsIcESaIcEEEELb1EE7_M_headERS8_
FNDA:102,_ZNSt10_Head_baseILm1ESt14default_deleteINSt7__cxx1118basic_stringstreamIcSt11char_traitsIcESaIcEEEELb1EE7_M_headERS8_
FN:124,_ZNSt10_Head_baseILm1ESt14default_deleteINSt7__cxx1112basic_stringIcSt11char_traitsIcESaIcEEEELb1EE7_M_headERS8_
FNDA:0,_ZNSt10_Head_baseILm1ESt14default_deleteINSt7__cxx1112basic_stringIcSt11char_traitsIcESaIcEEEELb1EE7_M_headERS8_
FN:189,_ZNSt10_Head_baseILm0EPNSt7__cxx1112basic_stringIcSt11char_traitsIcESaIcEEELb0EEC2Ev
FNDA:78,_ZNSt10_Head_baseILm0EPNSt7__cxx1112basic_stringIcSt11char_traitsIcESaIcEEELb0EEC2Ev
FN:233,_ZNSt10_Head_baseILm0EPNSt7__cxx1112basic_stringIcSt11char_traitsIcESaIcEEELb0EE7_M_headERS7_
FNDA:78,_ZNSt10_Head_baseILm0EPNSt7__cxx1112basic_stringIcSt11char_traitsIcESaIcEEELb0EE7_M_headERS7_
FN:233,_ZNSt10_Head_baseILm0EPNSt7__cxx1118basic_stringstreamIcSt11char_traitsIcESaIcEEELb0EE7_M_headERS7_
FNDA:204,_ZNSt10_Head_baseILm0EPNSt7__cxx1118basic_stringstreamIcSt11char_traitsIcESaIcEEELb0EE7_M_headERS7_
FN:236,_ZNSt10_Head_baseILm0EPNSt7__cxx1112basic_stringIcSt11char_traitsIcESaIcEEELb0EE7_M_headERKS7_
FNDA:0,_ZNSt10_Head_baseILm0EPNSt7__cxx1112basic_stringIcSt11char_traitsIcESaIcEEELb0EE7_M_headERKS7_
FN:268,_ZNSt11_Tuple_implILm0EJPNSt7__cxx1118basic_stringstreamIcSt11char_traitsIcESaIcEEESt14default_deleteIS5_EEE7_M_headERS9_
FNDA:204,_ZNSt11_Tuple_implILm0EJPNSt7__cxx1118basic_stringstreamIcSt11char_traitsIcESaIcEEESt14default_deleteIS5_EEE7_M_headERS9_
FN:268,_ZNSt11_Tuple_implILm0EJPNSt7__cxx1112basic_stringIcSt11char_traitsIcESaIcEEESt14default_deleteIS5_EEE7_M_headERS9_
FNDA:78,_ZNSt11_Tuple_implILm0EJPNSt7__cxx1112basic_stringIcSt11char_traitsIcESaIcEEESt14default_deleteIS5_EEE7_M_headERS9_
FN:271,_ZNSt11_Tuple_implILm0EJPNSt7__cxx1112basic_stringIcSt11char_traitsIcESaIcEEESt14default_deleteIS5_EEE7_M_headERKS9_
FNDA:0,_ZNSt11_Tuple_implILm0EJPNSt7__cxx1112basic_stringIcSt11char_traitsIcESaIcEEESt14default_deleteIS5_EEE7_M_headERKS9_
FN:279,_ZNSt11_Tuple_implILm0EJPNSt7__cxx1112basic_stringIcSt11char_traitsIcESaIcEEESt14default_deleteIS5_EEEC2Ev
FNDA:78,_ZNSt11_Tuple_implILm0EJPNSt7__cxx1112basic_stringIcSt11char_traitsIcESaIcEEESt14default_deleteIS5_EEEC2Ev
FN:424,_ZNSt11_Tuple_implILm1EJSt14default_deleteINSt7__cxx1118basic_stringstreamIcSt11char_traitsIcESaIcEEEEEE7_M_headERS8_
FNDA:102,_ZNSt11_Tuple_implILm1EJSt14default_deleteINSt7__cxx1118basic_stringstreamIcSt11char_traitsIcESaIcEEEEEE7_M_headERS8_
FN:424,_ZNSt11_Tuple_implILm1EJSt14default_deleteINSt7__cxx1112basic_stringIcSt11char_traitsIcESaIcEEEEEE7_M_headERS8_
FNDA:0,_ZNSt11_Tuple_implILm1EJSt14default_deleteINSt7__cxx1112basic_stringIcSt11char_traitsIcESaIcEEEEEE7_M_headERS8_
FN:430,_ZNSt11_Tuple_implILm1EJSt14default_deleteINSt7__cxx1112basic_stringIcSt11char_traitsIcESaIcEEEEEEC2Ev
FNDA:78,_ZNSt11_Tuple_implILm1EJSt14default_deleteINSt7__cxx1112basic_stringIcSt11char_traitsIcESaIcEEEEEEC2Ev
FN:1049,_ZNSt5tupleIJPNSt7__cxx1112basic_stringIcSt11char_traitsIcESaIcEEESt14default_deleteIS5_EEEC2ILb1ELb1EEEv
FNDA:78,_ZNSt5tupleIJPNSt7__cxx1112basic_stringIcSt11char_traitsIcESaIcEEESt14default_deleteIS5_EEEC2ILb1ELb1EEEv
FN:1377,_ZSt12__get_helperILm1ESt14default_deleteINSt7__cxx1112basic_stringIcSt11char_traitsIcESaIcEEEEJEERT0_RSt11_Tuple_implIXT_EJS8_DpT1_EE
FNDA:0,_ZSt12__get_helperILm1ESt14default_deleteINSt7__cxx1112basic_stringIcSt11char_traitsIcESaIcEEEEJEERT0_RSt11_Tuple_implIXT_EJS8_DpT1_EE
FN:1377,_ZSt12__get_helperILm0EPNSt7__cxx1118basic_stringstreamIcSt11char_traitsIcESaIcEEEJSt14default_deleteIS5_EEERT0_RSt11_Tuple_implIXT_EJS9_DpT1_EE
FNDA:204,_ZSt12__get_helperILm0EPNSt7__cxx1118basic_stringstreamIcSt11char_traitsIcESaIcEEEJSt14default_deleteIS5_EEERT0_RSt11_Tuple_implIXT_EJS9_DpT1_EE
FN:1377,_ZSt12__get_helperILm0EPNSt7__cxx1112basic_stringIcSt11char_traitsIcESaIcEEEJSt14default_deleteIS5_EEERT0_RSt11_Tuple_implIXT_EJS9_DpT1_EE
FNDA:78,_ZSt12__get_helperILm0EPNSt7__cxx1112basic_stringIcSt11char_traitsIcESaIcEEEJSt14default_deleteIS5_EEERT0_RSt11_Tuple_implIXT_EJS9_DpT1_EE
FN:1377,_ZSt12__get_helperILm1ESt14default_deleteINSt7__cxx1118basic_stringstreamIcSt11char_traitsIcESaIcEEEEJEERT0_RSt11_Tuple_implIXT_EJS8_DpT1_EE
FNDA:102,_ZSt12__get_helperILm1ESt14default_deleteINSt7__cxx1118basic_stringstreamIcSt11char_traitsIcESaIcEEEEJEERT0_RSt11_Tuple_implIXT_EJS8_DpT1_EE
FN:1382,_ZSt12__get_helperILm0EPNSt7__cxx1112basic_stringIcSt11char_traitsIcESaIcEEEJSt14default_deleteIS5_EEERKT0_RKSt11_Tuple_implIXT_EJS9_DpT1_EE
FNDA:0,_ZSt12__get_helperILm0EPNSt7__cxx1112basic_stringIcSt11char_traitsIcESaIcEEEJSt14default_deleteIS5_EEERKT0_RKSt11_Tuple_implIXT_EJS9_DpT1_EE
FN:1393,_ZSt3getILm1EJPNSt7__cxx1118basic_stringstreamIcSt11char_traitsIcESaIcEEESt14default_deleteIS5_EEERNSt13tuple_elementIXT_ESt5tupleIJDpT0_EEE4typeERSD_
FNDA:102,_ZSt3getILm1EJPNSt7__cxx1118basic_stringstreamIcSt11char_traitsIcESaIcEEESt14default_deleteIS5_EEERNSt13tuple_elementIXT_ESt5tupleIJDpT0_EEE4typeERSD_
FN:1393,_ZSt3getILm1EJPNSt7__cxx1112basic_stringIcSt11char_traitsIcESaIcEEESt14default_deleteIS5_EEERNSt13tuple_elementIXT_ESt5tupleIJDpT0_EEE4typeERSD_
FNDA:0,_ZSt3getILm1EJPNSt7__cxx1112basic_stringIcSt11char_traitsIcESaIcEEESt14default_deleteIS5_EEERNSt13tuple_elementIXT_ESt5tupleIJDpT0_EEE4typeERSD_
FN:1393,_ZSt3getILm0EJPNSt7__cxx1112basic_stringIcSt11char_traitsIcESaIcEEESt14default_deleteIS5_EEERNSt13tuple_elementIXT_ESt5tupleIJDpT0_EEE4typeERSD_
FNDA:78,_ZSt3getILm0EJPNSt7__cxx1112basic_stringIcSt11char_traitsIcESaIcEEESt14default_deleteIS5_EEERNSt13tuple_elementIXT_ESt5tupleIJDpT0_EEE4typeERSD_
FN:1393,_ZSt3getILm0EJPNSt7__cxx1118basic_stringstreamIcSt11char_traitsIcESaIcEEESt14default_deleteIS5_EEERNSt13tuple_elementIXT_ESt5tupleIJDpT0_EEE4typeERSD_
FNDA:204,_ZSt3getILm0EJPNSt7__cxx1118basic_stringstreamIcSt11char_traitsIcESaIcEEESt14default_deleteIS5_EEERNSt13tuple_elementIXT_ESt5tupleIJDpT0_EEE4typeERSD_
FN:1399,_ZSt3getILm0EJPNSt7__cxx1112basic_stringIcSt11char_traitsIcESaIcEEESt14default_deleteIS5_EEERKNSt13tuple_elementIXT_ESt5tupleIJDpT0_EEE4typeERKSD_
FNDA:0,_ZSt3getILm0EJPNSt7__cxx1112basic_stringIcSt11char_traitsIcESaIcEEESt14default_deleteIS5_EEERKNSt13tuple_elementIXT_ESt5tupleIJDpT0_EEE4typeERKSD_
DA:80,78
DA:81,78
DA:124,0
DA:124,102
DA:189,78
DA:190,78
DA:233,78
DA:233,204
DA:236,0
DA:268,78
DA:268,204
DA:271,0
DA:279,78
DA:280,78
DA:424,0
DA:424,102
DA:430,78
DA:431,78
DA:1049,78
DA:1051,78
DA:1377,0
DA:1378,0
DA:1377,102
DA:1378,102
DA:1377,78
DA:1378,78
DA:1377,204
DA:1378,204
DA:1382,0
DA:1383,0
DA:1393,0
DA:1394,0
DA:1393,102
DA:1394,102
DA:1393,78
DA:1394,78
DA:1393,204
DA:1394,204
DA:1399,0
DA:1400,0
end_of_record
SF:/home/drakowkq/work/labs/lab1(bitArr)/googletest/googletest/include/gtest/gtest-assertion-result.h
FN:155,_ZN7testing15AssertionResultC2IbEERKT_PNSt9enable_ifIXntsrSt14is_convertibleIS2_S0_E5valueEvE4typeE
FNDA:78,_ZN7testing15AssertionResultC2IbEERKT_PNSt9enable_ifIXntsrSt14is_convertibleIS2_S0_E5valueEvE4typeE
FN:174,_ZNK7testing15AssertionResultcvbEv
FNDA:78,_ZNK7testing15AssertionResultcvbEv
FN:183,_ZNK7testing15AssertionResult7messageEv
FNDA:0,_ZNK7testing15AssertionResult7messageEv
FN:187,_ZNK7testing15AssertionResult15failure_messageEv
FNDA:0,_ZNK7testing15AssertionResult15failure_messageEv
DA:155,78
DA:161,78
DA:174,78
DA:183,0
DA:184,0
DA:187,0
end_of_record
SF:/usr/include/c++/11/bits/move.h
FN:104,_ZSt4moveIRPNSt7__cxx1112basic_stringIcSt11char_traitsIcESaIcEEEEONSt16remove_referenceIT_E4typeEOS9_
FNDA:0,_ZSt4moveIRPNSt7__cxx1112basic_stringIcSt11char_traitsIcESaIcEEEEONSt16remove_referenceIT_E4typeEOS9_
FN:104,_ZSt4moveIRPNSt7__cxx1118basic_stringstreamIcSt11char_traitsIcESaIcEEEEONSt16remove_referenceIT_E4typeEOS9_
FNDA:102,_ZSt4moveIRPNSt7__cxx1118basic_stringstreamIcSt11char_traitsIcESaIcEEEEONSt16remove_referenceIT_E4typeEOS9_
FN:104,_ZSt4moveIRSaIcEEONSt16remove_referenceIT_E4typeEOS3_
FNDA:0,_ZSt4moveIRSaIcEEONSt16remove_referenceIT_E4typeEOS3_
DA:104,0
DA:105,0
DA:104,102
DA:105,102
DA:104,0
DA:105,0
end_of_record
SF:/home/drakowkq/work/labs/lab1(bitArr)/googletest/googletest/include/gtest/gtest-printers.h
FN:213,_ZN7testing8internal52internal_stream_operator_without_lexical_name_lookup13StreamPrinter10PrintValueIivRSoEEvRKT_PSo
FNDA:0,_ZN7testing8internal52internal_stream_operator_without_lexical_name_lookup13StreamPrinter10PrintValueIivRSoEEvRKT_PSo
FN:305,_ZN7testing8internal17PrintWithFallbackIiEEvRKT_PSo
FNDA:0,_ZN7testing8internal17PrintWithFallbackIiEEvRKT_PSo
FN:332,_ZN7testing8internal19FormatForComparisonIiiE6FormatB5cxx11ERKi
FNDA:0,_ZN7testing8internal19FormatForComparisonIiiE6FormatB5cxx11ERKi
FN:332,_ZN7testing8internal19FormatForComparisonINSt7__cxx1112basic_stringIcSt11char_traitsIcESaIcEEEA9_cE6FormatERKS7_
FNDA:0,_ZN7testing8internal19FormatForComparisonINSt7__cxx1112basic_stringIcSt11char_traitsIcESaIcEEEA9_cE6FormatERKS7_
FN:332,_ZN7testing8internal19FormatForComparisonINSt7__cxx1112basic_stringIcSt11char_traitsIcESaIcEEEA11_cE6FormatERKS7_
FNDA:0,_ZN7testing8internal19FormatForComparisonINSt7__cxx1112basic_stringIcSt11char_traitsIcESaIcEEEA11_cE6FormatERKS7_
FN:332,_ZN7testing8internal19FormatForComparisonINSt7__cxx1112basic_stringIcSt11char_traitsIcESaIcEEES7_E6FormatERKS7_
FNDA:0,_ZN7testing8internal19FormatForComparisonINSt7__cxx1112basic_stringIcSt11char_traitsIcESaIcEEES7_E6FormatERKS7_
FN:332,_ZN7testing8internal19FormatForComparisonINSt7__cxx1112basic_stringIcSt11char_traitsIcESaIcEEEA1_cE6FormatERKS7_
FNDA:0,_ZN7testing8internal19FormatForComparisonINSt7__cxx1112basic_stringIcSt11char_traitsIcESaIcEEEA1_cE6FormatERKS7_
FN:332,_ZN7testing8internal19FormatForComparisonINSt7__cxx1112basic_stringIcSt11char_traitsIcESaIcEEEA5_cE6FormatERKS7_
FNDA:0,_ZN7testing8internal19FormatForComparisonINSt7__cxx1112basic_stringIcSt11char_traitsIcESaIcEEEA5_cE6FormatERKS7_
FN:332,_ZN7testing8internal19FormatForComparisonIbbE6FormatB5cxx11ERKb
FNDA:0,_ZN7testing8internal19FormatForComparisonIbbE6FormatB5cxx11ERKb
FN:341,_ZN7testing8internal19FormatForComparisonIA9_cNSt7__cxx1112basic_stringIcSt11char_traitsIcESaIcEEEE6FormatEPKc
FNDA:0,_ZN7testing8internal19FormatForComparisonIA9_cNSt7__cxx1112basic_stringIcSt11char_traitsIcESaIcEEEE6FormatEPKc
FN:341,_ZN7testing8internal19FormatForComparisonIA11_cNSt7__cxx1112basic_stringIcSt11char_traitsIcESaIcEEEE6FormatEPKc
FNDA:0,_ZN7testing8internal19FormatForComparisonIA11_cNSt7__cxx1112basic_stringIcSt11char_traitsIcESaIcEEEE6FormatEPKc
FN:341,_ZN7testing8internal19FormatForComparisonIA1_cNSt7__cxx1112basic_stringIcSt11char_traitsIcESaIcEEEE6FormatEPKc
FNDA:0,_ZN7testing8internal19FormatForComparisonIA1_cNSt7__cxx1112basic_stringIcSt11char_traitsIcESaIcEEEE6FormatEPKc
FN:341,_ZN7testing8internal19FormatForComparisonIA5_cNSt7__cxx1112basic_stringIcSt11char_traitsIcESaIcEEEE6FormatEPKc
FNDA:0,_ZN7testing8internal19FormatForComparisonIA5_cNSt7__cxx1112basic_stringIcSt11char_traitsIcESaIcEEEE6FormatEPKc
FN:386,_ZN7testing8internal19FormatForComparisonIPKcNSt7__cxx1112basic_stringIcSt11char_traitsIcESaIcEEEE6FormatES3_
FNDA:0,_ZN7testing8internal19FormatForComparisonIPKcNSt7__cxx1112basic_stringIcSt11char_traitsIcESaIcEEEE6FormatES3_
FN:412,_ZN7testing8internal33FormatForComparisonFailureMessageIA1_cNSt7__cxx1112basic_stringIcSt11char_traitsIcESaIcEEEEES8_RKT_RKT0_
FNDA:0,_ZN7testing8internal33FormatForComparisonFailureMessageIA1_cNSt7__cxx1112basic_stringIcSt11char_traitsIcESaIcEEEEES8_RKT_RKT0_
FN:412,_ZN7testing8internal33FormatForComparisonFailureMessageIiiEENSt7__cxx1112basic_stringIcSt11char_traitsIcESaIcEEERKT_RKT0_
FNDA:0,_ZN7testing8internal33FormatForComparisonFailureMessageIiiEENSt7__cxx1112basic_stringIcSt11char_traitsIcESaIcEEERKT_RKT0_
FN:412,_ZN7testing8internal33FormatForComparisonFailureMessageINSt7__cxx1112basic_stringIcSt11char_traitsIcESaIcEEEA9_cEES7_RKT_RKT0_
FNDA:0,_ZN7testing8internal33FormatForComparisonFailureMessageINSt7__cxx1112basic_stringIcSt11char_traitsIcESaIcEEEA9_cEES7_RKT_RKT0_
FN:412,_ZN7testing8internal33FormatForComparisonFailureMessageIA9_cNSt7__cxx1112basic_stringIcSt11char_traitsIcESaIcEEEEES8_RKT_RKT0_
FNDA:0,_ZN7testing8internal33FormatForComparisonFailureMessageIA9_cNSt7__cxx1112basic_stringIcSt11char_traitsIcESaIcEEEEES8_RKT_RKT0_
FN:412,_ZN7testing8internal33FormatForComparisonFailureMessageINSt7__cxx1112basic_stringIcSt11char_traitsIcESaIcEEEA11_cEES7_RKT_RKT0_
FNDA:0,_ZN7testing8internal33FormatForComparisonFailureMessageINSt7__cxx1112basic_stringIcSt11char_traitsIcESaIcEEEA11_cEES7_RKT_RKT0_
FN:412,_ZN7testing8internal33FormatForComparisonFailureMessageIA11_cNSt7__cxx1112basic_stringIcSt11char_traitsIcESaIcEEEEES8_RKT_RKT0_
FNDA:0,_ZN7testing8internal33FormatForComparisonFailureMessageIA11_cNSt7__cxx1112basic_stringIcSt11char_traitsIcESaIcEEEEES8_RKT_RKT0_
FN:412,_ZN7testing8internal33FormatForComparisonFailureMessageINSt7__cxx1112basic_stringIcSt11char_traitsIcESaIcEEES7_EES7_RKT_RKT0_
FNDA:0,_ZN7testing8internal33FormatForComparisonFailureMessageINSt7__cxx1112basic_stringIcSt11char_traitsIcESaIcEEES7_EES7_RKT_RKT0_
FN:412,_ZN7testing8internal33FormatForComparisonFailureMessageINSt7__cxx1112basic_stringIcSt11char_traitsIcESaIcEEEA1_cEES7_RKT_RKT0_
FNDA:0,_ZN7testing8internal33FormatForComparisonFailureMessageINSt7__cxx1112basic_stringIcSt11char_traitsIcESaIcEEEA1_cEES7_RKT_RKT0_
FN:412,_ZN7testing8internal33FormatForComparisonFailureMessageINSt7__cxx1112basic_stringIcSt11char_traitsIcESaIcEEEA5_cEES7_RKT_RKT0_
FNDA:0,_ZN7testing8internal33FormatForComparisonFailureMessageINSt7__cxx1112basic_stringIcSt11char_traitsIcESaIcEEEA5_cEES7_RKT_RKT0_
FN:412,_ZN7testing8internal33FormatForComparisonFailureMessageIA5_cNSt7__cxx1112basic_stringIcSt11char_traitsIcESaIcEEEEES8_RKT_RKT0_
FNDA:0,_ZN7testing8internal33FormatForComparisonFailureMessageIA5_cNSt7__cxx1112basic_stringIcSt11char_traitsIcESaIcEEEEES8_RKT_RKT0_
FN:412,_ZN7testing8internal33FormatForComparisonFailureMessageIbbEENSt7__cxx1112basic_stringIcSt11char_traitsIcESaIcEEERKT_RKT0_
FNDA:0,_ZN7testing8internal33FormatForComparisonFailureMessageIbbEENSt7__cxx1112basic_stringIcSt11char_traitsIcESaIcEEERKT_RKT0_
FN:439,_ZN7testing8internal7PrintToIiEEvRKT_PSo
FNDA:0,_ZN7testing8internal7PrintToIiEEvRKT_PSo
FN:458,_ZN7testing8internal7PrintToEbPSo
FNDA:0,_ZN7testing8internal7PrintToEbPSo
FN:554,_ZN7testing8internal7PrintToERKNSt7__cxx1112basic_stringIcSt11char_traitsIcESaIcEEEPSo
FNDA:0,_ZN7testing8internal7PrintToERKNSt7__cxx1112basic_stringIcSt11char_traitsIcESaIcEEEPSo
FN:693,_ZN7testing8internal16UniversalPrinterIbE5PrintERKbPSo
FNDA:0,_ZN7testing8internal16UniversalPrinterIbE5PrintERKbPSo
FN:693,_ZN7testing8internal16UniversalPrinterIiE5PrintERKiPSo
FNDA:0,_ZN7testing8internal16UniversalPrinterIiE5PrintERKiPSo
FN:693,_ZN7testing8internal16UniversalPrinterINSt7__cxx1112basic_stringIcSt11char_traitsIcESaIcEEEE5PrintERKS7_PSo
FNDA:0,_ZN7testing8internal16UniversalPrinterINSt7__cxx1112basic_stringIcSt11char_traitsIcESaIcEEEE5PrintERKS7_PSo
FN:883,_ZN7testing8internal21UniversalTersePrinterIiE5PrintERKiPSo
FNDA:0,_ZN7testing8internal21UniversalTersePrinterIiE5PrintERKiPSo
FN:883,_ZN7testing8internal21UniversalTersePrinterINSt7__cxx1112basic_stringIcSt11char_traitsIcESaIcEEEE5PrintERKS7_PSo
FNDA:0,_ZN7testing8internal21UniversalTersePrinterINSt7__cxx1112basic_stringIcSt11char_traitsIcESaIcEEEE5PrintERKS7_PSo
FN:883,_ZN7testing8internal21UniversalTersePrinterIbE5PrintERKbPSo
FNDA:0,_ZN7testing8internal21UniversalTersePrinterIbE5PrintERKbPSo
FN:904,_ZN7testing8internal21UniversalTersePrinterIPKcE5PrintES3_PSo
FNDA:0,_ZN7testing8internal21UniversalTersePrinterIPKcE5PrintES3_PSo
FN:995,_ZN7testing8internal14UniversalPrintIiEEvRKT_PSo
FNDA:0,_ZN7testing8internal14UniversalPrintIiEEvRKT_PSo
FN:995,_ZN7testing8internal14UniversalPrintINSt7__cxx1112basic_stringIcSt11char_traitsIcESaIcEEEEEvRKT_PSo
FNDA:0,_ZN7testing8internal14UniversalPrintINSt7__cxx1112basic_stringIcSt11char_traitsIcESaIcEEEEEvRKT_PSo
FN:995,_ZN7testing8internal14UniversalPrintIbEEvRKT_PSo
FNDA:0,_ZN7testing8internal14UniversalPrintIbEEvRKT_PSo
FN:1035,_ZN7testing13PrintToStringIbEENSt7__cxx1112basic_stringIcSt11char_traitsIcESaIcEEERKT_
FNDA:0,_ZN7testing13PrintToStringIbEENSt7__cxx1112basic_stringIcSt11char_traitsIcESaIcEEERKT_
FN:1035,_ZN7testing13PrintToStringIPKcEENSt7__cxx1112basic_stringIcSt11char_traitsIcESaIcEEERKT_
FNDA:0,_ZN7testing13PrintToStringIPKcEENSt7__cxx1112basic_stringIcSt11char_traitsIcESaIcEEERKT_
FN:1035,_ZN7testing13PrintToStringIiEENSt7__cxx1112basic_stringIcSt11char_traitsIcESaIcEEERKT_
FNDA:0,_ZN7testing13PrintToStringIiEENSt7__cxx1112basic_stringIcSt11char_traitsIcESaIcEEERKT_
FN:1035,_ZN7testing13PrintToStringINSt7__cxx1112basic_stringIcSt11char_traitsIcESaIcEEEEES6_RKT_
FNDA:0,_ZN7testing13PrintToStringINSt7__cxx1112basic_stringIcSt11char_traitsIcESaIcEEEEES6_RKT_
DA:213,0
DA:216,0
DA:217,0
DA:305,0
DA:311,0
DA:312,0
DA:332,0
DA:333,0
DA:332,0
DA:333,0
DA:332,0
DA:333,0
DA:332,0
DA:333,0
DA:332,0
DA:333,0
DA:332,0
DA:333,0
DA:332,0
DA:333,0
DA:341,0
DA:342,0
DA:341,0
DA:342,0
DA:341,0
DA:342,0
DA:341,0
DA:342,0
DA:386,0
DA:412,0
DA:414,0
DA:412,0
DA:414,0
DA:412,0
DA:414,0
DA:412,0
DA:414,0
DA:412,0
DA:414,0
DA:412,0
DA:414,0
DA:412,0
DA:414,0
DA:412,0
DA:414,0
DA:412,0
DA:414,0
DA:412,0
DA:414,0
DA:412,0
DA:414,0
DA:439,0
DA:440,0
DA:441,0
DA:458,0
DA:459,0
DA:460,0
DA:554,0
DA:555,0
DA:556,0
DA:693,0
DA:702,0
DA:703,0
DA:693,0
DA:702,0
DA:703,0
DA:693,0
DA:702,0
DA:703,0
DA:883,0
DA:884,0
DA:885,0
DA:883,0
DA:884,0
DA:885,0
DA:883,0
DA:884,0
DA:885,0
DA:904,0
DA:905,0
DA:906,0
DA:908,0
DA:910,0
DA:995,0
DA:999,0
DA:1000,0
DA:995,0
DA:999,0
DA:1000,0
DA:995,0
DA:999,0
DA:1000,0
DA:1035,0
DA:1036,0
DA:1037,0
DA:1038,0
DA:1039,0
DA:1035,0
DA:1036,0
DA:1037,0
DA:1038,0
DA:1039,0
DA:1035,0
DA:1036,0
DA:1037,0
DA:1038,0
DA:1039,0
DA:1035,0
DA:1036,0
DA:1037,0
DA:1038,0
DA:1039,0
end_of_record
SF:/usr/include/c++/11/bits/stl_iterator_base_types.h
FN:238,_ZSt19__iterator_categoryIPcENSt15iterator_traitsIT_E17iterator_categoryERKS2_
FNDA:0,_ZSt19__iterator_categoryIPcENSt15iterator_traitsIT_E17iterator_categoryERKS2_
FN:238,_ZSt19__iterator_categoryIPKcENSt15iterator_traitsIT_E17iterator_categoryERKS3_
FNDA:273,_ZSt19__iterator_categoryIPKcENSt15iterator_traitsIT_E17iterator_categoryERKS3_
DA:238,0
DA:239,0
DA:238,273
DA:239,273
end_of_record
SF:/home/drakowkq/work/labs/lab1(bitArr)/googletest/googletest/include/gtest/internal/gtest-internal.h
FN:450,_ZN7testing8internal15TestFactoryBaseD2Ev
FNDA:50,_ZN7testing8internal15TestFactoryBaseD2Ev
FN:450,_ZN7testing8internal15TestFactoryBaseD0Ev
FNDA:0,_ZN7testing8internal15TestFactoryBaseD0Ev
FN:457,_ZN7testing8internal15TestFactoryBaseC2Ev
FNDA:50,_ZN7testing8internal15TestFactoryBaseC2Ev
FN:469,_ZN7testing8internal15TestFactoryImplI33BitArrayTest_CheckRightShift_TestE10CreateTestEv
FNDA:1,_ZN7testing8internal15TestFactoryImplI33BitArrayTest_CheckRightShift_TestE10CreateTestEv
FN:469,_ZN7testing8internal15TestFactoryImplI29BitArrayTest_CheckSetOne_TestE10CreateTestEv
FNDA:1,_ZN7testing8internal15TestFactoryImplI29BitArrayTest_CheckSetOne_TestE10CreateTestEv
FN:469,_ZN7testing8internal15TestFactoryImplI45BitArrayTest_CheckSetOneWithInvalidIndex_TestE10CreateTestEv
FNDA:1,_ZN7testing8internal15TestFactoryImplI45BitArrayTest_CheckSetOneWithInvalidIndex_TestE10CreateTestEv
FN:469,_ZN7testing8internal15TestFactoryImplI36BitArrayTest_DefaultConstructor_TestE10CreateTestEv
FNDA:1,_ZN7testing8internal15TestFactoryImplI36BitArrayTest_DefaultConstructor_TestE10CreateTestEv
FN:469,_ZN7testing8internal15TestFactoryImplI29BitArrayTest_CheckSetAll_TestE10CreateTestEv
FNDA:1,_ZN7testing8internal15TestFactoryImplI29BitArrayTest_CheckSetAll_TestE10CreateTestEv
FN:469,_ZN7testing8internal15TestFactoryImplI47BitArrayTest_CheckResetOneWithInvalidIndex_TestE10CreateTestEv
FNDA:1,_ZN7testing8internal15TestFactoryImplI47BitArrayTest_CheckResetOneWithInvalidIndex_TestE10CreateTestEv
FN:469,_ZN7testing8internal15TestFactoryImplI31BitArrayTest_CheckResetOne_TestE10CreateTestEv
FNDA:1,_ZN7testing8internal15TestFactoryImplI31BitArrayTest_CheckResetOne_TestE10CreateTestEv
FN:469,_ZN7testing8internal15TestFactoryImplI31BitArrayTest_CheckResetAll_TestE10CreateTestEv
FNDA:1,_ZN7testing8internal15TestFactoryImplI31BitArrayTest_CheckResetAll_TestE10CreateTestEv
FN:469,_ZN7testing8internal15TestFactoryImplI26BitArrayTest_CheckAny_TestE10CreateTestEv
FNDA:1,_ZN7testing8internal15TestFactoryImplI26BitArrayTest_CheckAny_TestE10CreateTestEv
FN:469,_ZN7testing8internal15TestFactoryImplI27BitArrayTest_CheckNone_TestE10CreateTestEv
FNDA:1,_ZN7testing8internal15TestFactoryImplI27BitArrayTest_CheckNone_TestE10CreateTestEv
FN:469,_ZN7testing8internal15TestFactoryImplI29BitArrayTest_CheckInvert_TestE10CreateTestEv
FNDA:1,_ZN7testing8internal15TestFactoryImplI29BitArrayTest_CheckInvert_TestE10CreateTestEv
FN:469,_ZN7testing8internal15TestFactoryImplI28BitArrayTest_CheckCount_TestE10CreateTestEv
FNDA:1,_ZN7testing8internal15TestFactoryImplI28BitArrayTest_CheckCount_TestE10CreateTestEv
FN:469,_ZN7testing8internal15TestFactoryImplI28BitArrayTest_CheckIndex_TestE10CreateTestEv
FNDA:1,_ZN7testing8internal15TestFactoryImplI28BitArrayTest_CheckIndex_TestE10CreateTestEv
FN:469,_ZN7testing8internal15TestFactoryImplI27BitArrayTest_CheckSize_TestE10CreateTestEv
FNDA:1,_ZN7testing8internal15TestFactoryImplI27BitArrayTest_CheckSize_TestE10CreateTestEv
FN:469,_ZN7testing8internal15TestFactoryImplI28BitArrayTest_CheckEmpty_TestE10CreateTestEv
FNDA:1,_ZN7testing8internal15TestFactoryImplI28BitArrayTest_CheckEmpty_TestE10CreateTestEv
FN:469,_ZN7testing8internal15TestFactoryImplI31BitArrayTest_CheckToString_TestE10CreateTestEv
FNDA:1,_ZN7testing8internal15TestFactoryImplI31BitArrayTest_CheckToString_TestE10CreateTestEv
FN:469,_ZN7testing8internal15TestFactoryImplI30BitArrayTest_CheckEqually_TestE10CreateTestEv
FNDA:1,_ZN7testing8internal15TestFactoryImplI30BitArrayTest_CheckEqually_TestE10CreateTestEv
FN:469,_ZN7testing8internal15TestFactoryImplI33BitArrayTest_CheckNotEqually_TestE10CreateTestEv
FNDA:1,_ZN7testing8internal15TestFactoryImplI33BitArrayTest_CheckNotEqually_TestE10CreateTestEv
FN:469,_ZN7testing8internal15TestFactoryImplI39BitArrayTest_CheckANDWithDiffSizes_TestE10CreateTestEv
FNDA:1,_ZN7testing8internal15TestFactoryImplI39BitArrayTest_CheckANDWithDiffSizes_TestE10CreateTestEv
FN:469,_ZN7testing8internal15TestFactoryImplI26BitArrayTest_CheckAND_TestE10CreateTestEv
FNDA:1,_ZN7testing8internal15TestFactoryImplI26BitArrayTest_CheckAND_TestE10CreateTestEv
FN:469,_ZN7testing8internal15TestFactoryImplI38BitArrayTest_CheckORWithDiffSizes_TestE10CreateTestEv
FNDA:1,_ZN7testing8internal15TestFactoryImplI38BitArrayTest_CheckORWithDiffSizes_TestE10CreateTestEv
FN:469,_ZN7testing8internal15TestFactoryImplI25BitArrayTest_CheckOR_TestE10CreateTestEv
FNDA:1,_ZN7testing8internal15TestFactoryImplI25BitArrayTest_CheckOR_TestE10CreateTestEv
FN:469,_ZN7testing8internal15TestFactoryImplI39BitArrayTest_CheckXORWithDiffSizes_TestE10CreateTestEv
FNDA:1,_ZN7testing8internal15TestFactoryImplI39BitArrayTest_CheckXORWithDiffSizes_TestE10CreateTestEv
FN:469,_ZN7testing8internal15TestFactoryImplI26BitArrayTest_CheckXOR_TestE10CreateTestEv
FNDA:1,_ZN7testing8internal15TestFactoryImplI26BitArrayTest_CheckXOR_TestE10CreateTestEv
FN:469,_ZN7testing8internal15TestFactoryImplI38BitArrayTest_CheckResizeWithValue_TestE10CreateTestEv
FNDA:1,_ZN7testing8internal15TestFactoryImplI38BitArrayTest_CheckResizeWithValue_TestE10CreateTestEv
FN:469,_ZN7testing8internal15TestFactoryImplI44BitArrayTest_ConstructorWithInvalidSize_TestE10CreateTestEv
FNDA:1,_ZN7testing8internal15TestFactoryImplI44BitArrayTest_ConstructorWithInvalidSize_TestE10CreateTestEv
FN:469,_ZN7testing8internal15TestFactoryImplI49BitArrayTest_ConstructorWithSizeWithoutValue_TestE10CreateTestEv
FNDA:1,_ZN7testing8internal15TestFactoryImplI49BitArrayTest_ConstructorWithSizeWithoutValue_TestE10CreateTestEv
FN:469,_ZN7testing8internal15TestFactoryImplI45BitArrayTest_ConstructorWithSizeAndValue_TestE10CreateTestEv
FNDA:1,_ZN7testing8internal15TestFactoryImplI45BitArrayTest_ConstructorWithSizeAndValue_TestE10CreateTestEv
FN:469,_ZN7testing8internal15TestFactoryImplI33BitArrayTest_ConstructorCopy_TestE10CreateTestEv
FNDA:1,_ZN7testing8internal15TestFactoryImplI33BitArrayTest_ConstructorCopy_TestE10CreateTestEv
FN:469,_ZN7testing8internal15TestFactoryImplI22BitArrayTest_Swap_TestE10CreateTestEv
FNDA:1,_ZN7testing8internal15TestFactoryImplI22BitArrayTest_Swap_TestE10CreateTestEv
FN:469,_ZN7testing8internal15TestFactoryImplI27BitArrayTest_Assigment_TestE10CreateTestEv
FNDA:1,_ZN7testing8internal15TestFactoryImplI27BitArrayTest_Assigment_TestE10CreateTestEv
FN:469,_ZN7testing8internal15TestFactoryImplI29BitArrayTest_AssigmentEQ_TestE10CreateTestEv
FNDA:1,_ZN7testing8internal15TestFactoryImplI29BitArrayTest_AssigmentEQ_TestE10CreateTestEv
FN:469,_ZN7testing8internal15TestFactoryImplI33BitArrayTest_CheckResizeNull_TestE10CreateTestEv
FNDA:1,_ZN7testing8internal15TestFactoryImplI33BitArrayTest_CheckResizeNull_TestE10CreateTestEv
FN:469,_ZN7testing8internal15TestFactoryImplI41BitArrayTest_CheckResizeWithoutValue_TestE10CreateTestEv
FNDA:1,_ZN7testing8internal15TestFactoryImplI41BitArrayTest_CheckResizeWithoutValue_TestE10CreateTestEv
FN:469,_ZN7testing8internal15TestFactoryImplI50BitArrayTest_CheckRighttShiftWithInvalidIndex_TestE10CreateTestEv
FNDA:1,_ZN7testing8internal15TestFactoryImplI50BitArrayTest_CheckRighttShiftWithInvalidIndex_TestE10CreateTestEv
FN:469,_ZN7testing8internal15TestFactoryImplI44BitArrayTest_CheckResizeWithInvalidSize_TestE10CreateTestEv
FNDA:1,_ZN7testing8internal15TestFactoryImplI44BitArrayTest_CheckResizeWithInvalidSize_TestE10CreateTestEv
FN:469,_ZN7testing8internal15TestFactoryImplI28BitArrayTest_CheckClear_TestE10CreateTestEv
FNDA:1,_ZN7testing8internal15TestFactoryImplI28BitArrayTest_CheckClear_TestE10CreateTestEv
FN:469,_ZN7testing8internal15TestFactoryImplI57BitArrayTest_CheckRightShiftAndAssignWithIvalidIndex_TestE10CreateTestEv
FNDA:1,_ZN7testing8internal15TestFactoryImplI57BitArrayTest_CheckRightShiftAndAssignWithIvalidIndex_TestE10CreateTestEv
FN:469,_ZN7testing8internal15TestFactoryImplI32BitArrayTest_CheckLeftShift_TestE10CreateTestEv
FNDA:1,_ZN7testing8internal15TestFactoryImplI32BitArrayTest_CheckLeftShift_TestE10CreateTestEv
FN:469,_ZN7testing8internal15TestFactoryImplI48BitArrayTest_CheckLeftShiftWithInvalidIndex_TestE10CreateTestEv
FNDA:1,_ZN7testing8internal15TestFactoryImplI48BitArrayTest_CheckLeftShiftWithInvalidIndex_TestE10CreateTestEv
FN:469,_ZN7testing8internal15TestFactoryImplI42BitArrayTest_CheckRightShiftAndAssign_TestE10CreateTestEv
FNDA:1,_ZN7testing8internal15TestFactoryImplI42BitArrayTest_CheckRightShiftAndAssign_TestE10CreateTestEv
FN:469,_ZN7testing8internal15TestFactoryImplI31BitArrayTest_CheckPushBack_TestE10CreateTestEv
FNDA:1,_ZN7testing8internal15TestFactoryImplI31BitArrayTest_CheckPushBack_TestE10CreateTestEv
FN:469,_ZN7testing8internal15TestFactoryImplI41BitArrayTest_CheckLeftShiftAndAssign_TestE10CreateTestEv
FNDA:1,_ZN7testing8internal15TestFactoryImplI41BitArrayTest_CheckLeftShiftAndAssign_TestE10CreateTestEv
FN:469,_ZN7testing8internal15TestFactoryImplI56BitArrayTest_CheckLeftShiftAndAssignWithIvalidIndex_TestE10CreateTestEv
FNDA:1,_ZN7testing8internal15TestFactoryImplI56BitArrayTest_CheckLeftShiftAndAssignWithIvalidIndex_TestE10CreateTestEv
FN:469,_ZN7testing8internal15TestFactoryImplI32BitArrayTest_CheckXORAssign_TestE10CreateTestEv
FNDA:1,_ZN7testing8internal15TestFactoryImplI32BitArrayTest_CheckXORAssign_TestE10CreateTestEv
FN:469,_ZN7testing8internal15TestFactoryImplI47BitArrayTest_CheckXORAssignInvalidArgument_TestE10CreateTestEv
FNDA:1,_ZN7testing8internal15TestFactoryImplI47BitArrayTest_CheckXORAssignInvalidArgument_TestE10CreateTestEv
FN:469,_ZN7testing8internal15TestFactoryImplI31BitArrayTest_CheckORAssign_TestE10CreateTestEv
FNDA:1,_ZN7testing8internal15TestFactoryImplI31BitArrayTest_CheckORAssign_TestE10CreateTestEv
FN:469,_ZN7testing8internal15TestFactoryImplI46BitArrayTest_CheckORAssignInvalidArgument_TestE10CreateTestEv
FNDA:1,_ZN7testing8internal15TestFactoryImplI46BitArrayTest_CheckORAssignInvalidArgument_TestE10CreateTestEv
FN:469,_ZN7testing8internal15TestFactoryImplI32BitArrayTest_CheckANDAssign_TestE10CreateTestEv
FNDA:1,_ZN7testing8internal15TestFactoryImplI32BitArrayTest_CheckANDAssign_TestE10CreateTestEv
FN:469,_ZN7testing8internal15TestFactoryImplI47BitArrayTest_CheckANDAssignInvalidArgument_TestE10CreateTestEv
FNDA:1,_ZN7testing8internal15TestFactoryImplI47BitArrayTest_CheckANDAssignInvalidArgument_TestE10CreateTestEv
FN:490,_ZN7testing8internal12CodeLocationC2ERKNSt7__cxx1112basic_stringIcSt11char_traitsIcESaIcEEEi
FNDA:50,_ZN7testing8internal12CodeLocationC2ERKNSt7__cxx1112basic_stringIcSt11char_traitsIcESaIcEEEi
FN:503,_ZN7testing8internal19GetNotDefaultOrNullEPFvvES2_
FNDA:200,_ZN7testing8internal19GetNotDefaultOrNullEPFvvES2_
FN:518,_ZN7testing8internal16SuiteApiResolverINS_4TestEE19GetSetUpCaseOrSuiteEPKci
FNDA:50,_ZN7testing8internal16SuiteApiResolverINS_4TestEE19GetSetUpCaseOrSuiteEPKci
FN:539,_ZN7testing8internal16SuiteApiResolverINS_4TestEE22GetTearDownCaseOrSuiteEPKci
FNDA:50,_ZN7testing8internal16SuiteApiResolverINS_4TestEE22GetTearDownCaseOrSuiteEPKci
FN:856,_ZN7testing8internal14TrueWithStringC2Ev
FNDA:16,_ZN7testing8internal14TrueWithStringC2Ev
FN:859,_ZNK7testing8internal14TrueWithStringcvbEv
FNDA:16,_ZNK7testing8internal14TrueWithStringcvbEv
DA:450,0
DA:450,50
DA:457,50
DA:469,1
DA:469,1
DA:469,1
DA:469,1
DA:469,1
DA:469,1
DA:469,1
DA:469,1
DA:469,1
DA:469,1
DA:469,1
DA:469,1
DA:469,1
DA:469,1
DA:469,1
DA:469,1
DA:469,1
DA:469,1
DA:469,1
DA:469,1
DA:469,1
DA:469,1
DA:469,1
DA:469,1
DA:469,1
DA:469,1
DA:469,1
DA:469,1
DA:469,1
DA:469,1
DA:469,1
DA:469,1
DA:469,1
DA:469,1
DA:469,1
DA:469,1
DA:469,1
DA:469,1
DA:469,1
DA:469,1
DA:469,1
DA:469,1
DA:469,1
DA:469,1
DA:469,1
DA:469,1
DA:469,1
DA:469,1
DA:469,1
DA:469,1
DA:490,50
DA:491,50
DA:503,200
DA:505,200
DA:518,50
DA:522,50
DA:524,50
DA:526,50
DA:529,0
DA:531,50
DA:539,50
DA:543,50
DA:545,50
DA:547,50
DA:550,0
DA:552,50
DA:856,16
DA:859,16
end_of_record
SF:/home/drakowkq/work/labs/lab1(bitArr)/googletest/googletest/include/gtest/internal/gtest-port.h
FN:967,_ZN7testing8internal8GTestLog9GetStreamEv
FNDA:0,_ZN7testing8internal8GTestLog9GetStreamEv
DA:967,0
end_of_record
SF:/usr/include/c++/11/bits/stl_iterator_base_funcs.h
FN:98,_ZSt10__distanceIPcENSt15iterator_traitsIT_E15difference_typeES2_S2_St26random_access_iterator_tag
FNDA:0,_ZSt10__distanceIPcENSt15iterator_traitsIT_E15difference_typeES2_S2_St26random_access_iterator_tag
FN:98,_ZSt10__distanceIPKcENSt15iterator_traitsIT_E15difference_typeES3_S3_St26random_access_iterator_tag
FNDA:273,_ZSt10__distanceIPKcENSt15iterator_traitsIT_E15difference_typeES3_S3_St26random_access_iterator_tag
FN:138,_ZSt8distanceIPcENSt15iterator_traitsIT_E15difference_typeES2_S2_
FNDA:0,_ZSt8distanceIPcENSt15iterator_traitsIT_E15difference_typeES2_S2_
FN:138,_ZSt8distanceIPKcENSt15iterator_traitsIT_E15difference_typeES3_S3_
FNDA:273,_ZSt8distanceIPKcENSt15iterator_traitsIT_E15difference_typeES3_S3_
DA:98,0
DA:104,0
DA:98,273
DA:104,273
DA:138,0
DA:141,0
DA:142,0
DA:138,273
DA:141,273
DA:142,546
end_of_record
SF:/home/drakowkq/work/labs/lab1(bitArr)/googletest/googletest/include/gtest/gtest-message.h
end_of_record
SF:/usr/include/c++/11/bits/basic_string.tcc
FN:206,_ZNSt7__cxx1112basic_stringIcSt11char_traitsIcESaIcEE12_M_constructIPcEEvT_S7_St20forward_iterator_tag
FNDA:0,_ZNSt7__cxx1112basic_stringIcSt11char_traitsIcESaIcEE12_M_constructIPcEEvT_S7_St20forward_iterator_tag
FN:206,_ZNSt7__cxx1112basic_stringIcSt11char_traitsIcESaIcEE12_M_constructIPKcEEvT_S8_St20forward_iterator_tag
FNDA:273,_ZNSt7__cxx1112basic_stringIcSt11char_traitsIcESaIcEE12_M_constructIPKcEEvT_S8_St20forward_iterator_tag
DA:206,0
DA:211,0
DA:212,0
DA:215,0
DA:217,0
DA:219,0
DA:220,0
DA:225,0
DA:226,0
DA:228,0
DA:229,0
DA:232,0
DA:233,0
DA:206,273
DA:211,273
DA:212,0
DA:215,273
DA:217,273
DA:219,45
DA:220,45
DA:225,273
DA:226,0
DA:228,0
DA:229,0
DA:232,273
DA:233,273
end_of_record
SF:/usr/include/c++/11/iostream
end_of_record
SF:/usr/include/c++/11/bits/basic_string.h
FN:251,_ZNSt7__cxx1112basic_stringIcSt11char_traitsIcESaIcEE16_M_construct_auxIPcEEvT_S7_St12__false_type
FNDA:0,_ZNSt7__cxx1112basic_stringIcSt11char_traitsIcESaIcEE16_M_construct_auxIPcEEvT_S7_St12__false_type
FN:271,_ZNSt7__cxx1112basic_stringIcSt11char_traitsIcESaIcEE12_M_constructIPcEEvT_S7_
FNDA:0,_ZNSt7__cxx1112basic_stringIcSt11char_traitsIcESaIcEE12_M_constructIPcEEvT_S7_
FN:533,_ZNSt7__cxx1112basic_stringIcSt11char_traitsIcESaIcEEC2IS3_EEPKcRKS3_
FNDA:267,_ZNSt7__cxx1112basic_stringIcSt11char_traitsIcESaIcEEC2IS3_EEPKcRKS3_
FN:6234,_ZSteqIcEN9__gnu_cxx11__enable_ifIXsrSt9__is_charIT_E7__valueEbE6__typeERKNSt7__cxx1112basic_stringIS3_St11char_traitsIS3_ESaIS3_EEESE_
FNDA:2,_ZSteqIcEN9__gnu_cxx11__enable_ifIXsrSt9__is_charIT_E7__valueEbE6__typeERKNSt7__cxx1112basic_stringIS3_St11char_traitsIS3_ESaIS3_EEESE_
FN:6248,_ZSteqIcSt11char_traitsIcESaIcEEbRKNSt7__cxx1112basic_stringIT_T0_T1_EEPKS5_
FNDA:37,_ZSteqIcSt11char_traitsIcESaIcEEbRKNSt7__cxx1112basic_stringIT_T0_T1_EEPKS5_
DA:251,0
DA:255,0
DA:256,0
DA:271,0
DA:274,0
DA:275,0
DA:533,267
DA:534,267
DA:536,267
DA:539,267
DA:540,267
DA:6234,2
DA:6236,2
DA:6237,2
DA:6238,2
DA:6248,37
DA:6250,37
end_of_record
SF:/usr/include/c++/11/typeinfo
FN:99,_ZNKSt9type_info4nameEv
FNDA:0,_ZNKSt9type_info4nameEv
DA:99,0
DA:100,0
end_of_record
SF:/usr/include/c++/11/bits/unique_ptr.h
FN:79,_ZNKSt14default_deleteINSt7__cxx1112basic_stringIcSt11char_traitsIcESaIcEEEEclEPS5_
FNDA:0,_ZNKSt14default_deleteINSt7__cxx1112basic_stringIcSt11char_traitsIcESaIcEEEEclEPS5_
FN:79,_ZNKSt14default_deleteINSt7__cxx1118basic_stringstreamIcSt11char_traitsIcESaIcEEEEclEPS5_
FNDA:102,_ZNKSt14default_deleteINSt7__cxx1118basic_stringstreamIcSt11char_traitsIcESaIcEEEEclEPS5_
FN:154,_ZNSt15__uniq_ptr_implINSt7__cxx1112basic_stringIcSt11char_traitsIcESaIcEEESt14default_deleteIS5_EEC2Ev
FNDA:78,_ZNSt15__uniq_ptr_implINSt7__cxx1112basic_stringIcSt11char_traitsIcESaIcEEESt14default_deleteIS5_EEC2Ev
FN:172,_ZNSt15__uniq_ptr_implINSt7__cxx1112basic_stringIcSt11char_traitsIcESaIcEEESt14default_deleteIS5_EE6_M_ptrEv
FNDA:78,_ZNSt15__uniq_ptr_implINSt7__cxx1112basic_stringIcSt11char_traitsIcESaIcEEESt14default_deleteIS5_EE6_M_ptrEv
FN:172,_ZNSt15__uniq_ptr_implINSt7__cxx1118basic_stringstreamIcSt11char_traitsIcESaIcEEESt14default_deleteIS5_EE6_M_ptrEv
FNDA:204,_ZNSt15__uniq_ptr_implINSt7__cxx1118basic_stringstreamIcSt11char_traitsIcESaIcEEESt14default_deleteIS5_EE6_M_ptrEv
FN:173,_ZNKSt15__uniq_ptr_implINSt7__cxx1112basic_stringIcSt11char_traitsIcESaIcEEESt14default_deleteIS5_EE6_M_ptrEv
FNDA:0,_ZNKSt15__uniq_ptr_implINSt7__cxx1112basic_stringIcSt11char_traitsIcESaIcEEESt14default_deleteIS5_EE6_M_ptrEv
FN:174,_ZNSt15__uniq_ptr_implINSt7__cxx1112basic_stringIcSt11char_traitsIcESaIcEEESt14default_deleteIS5_EE10_M_deleterEv
FNDA:0,_ZNSt15__uniq_ptr_implINSt7__cxx1112basic_stringIcSt11char_traitsIcESaIcEEESt14default_deleteIS5_EE10_M_deleterEv
FN:174,_ZNSt15__uniq_ptr_implINSt7__cxx1118basic_stringstreamIcSt11char_traitsIcESaIcEEESt14default_deleteIS5_EE10_M_deleterEv
FNDA:102,_ZNSt15__uniq_ptr_implINSt7__cxx1118basic_stringstreamIcSt11char_traitsIcESaIcEEESt14default_deleteIS5_EE10_M_deleterEv
FN:269,_ZNSt10unique_ptrINSt7__cxx1112basic_stringIcSt11char_traitsIcESaIcEEESt14default_deleteIS5_EEC2IS7_vEEv
FNDA:78,_ZNSt10unique_ptrINSt7__cxx1112basic_stringIcSt11char_traitsIcESaIcEEESt14default_deleteIS5_EEC2IS7_vEEv
FN:355,_ZNSt10unique_ptrINSt7__cxx1112basic_stringIcSt11char_traitsIcESaIcEEESt14default_deleteIS5_EED2Ev
FNDA:78,_ZNSt10unique_ptrINSt7__cxx1112basic_stringIcSt11char_traitsIcESaIcEEESt14default_deleteIS5_EED2Ev
FN:355,_ZNSt10unique_ptrINSt7__cxx1118basic_stringstreamIcSt11char_traitsIcESaIcEEESt14default_deleteIS5_EED2Ev
FNDA:102,_ZNSt10unique_ptrINSt7__cxx1118basic_stringstreamIcSt11char_traitsIcESaIcEEESt14default_deleteIS5_EED2Ev
FN:413,_ZNKSt10unique_ptrINSt7__cxx1112basic_stringIcSt11char_traitsIcESaIcEEESt14default_deleteIS5_EEptEv
FNDA:0,_ZNKSt10unique_ptrINSt7__cxx1112basic_stringIcSt11char_traitsIcESaIcEEESt14default_deleteIS5_EEptEv
FN:421,_ZNKSt10unique_ptrINSt7__cxx1112basic_stringIcSt11char_traitsIcESaIcEEESt14default_deleteIS5_EE3getEv
FNDA:0,_ZNKSt10unique_ptrINSt7__cxx1112basic_stringIcSt11char_traitsIcESaIcEEESt14default_deleteIS5_EE3getEv
FN:426,_ZNSt10unique_ptrINSt7__cxx1112basic_stringIcSt11char_traitsIcESaIcEEESt14default_deleteIS5_EE11get_deleterEv
FNDA:0,_ZNSt10unique_ptrINSt7__cxx1112basic_stringIcSt11char_traitsIcESaIcEEESt14default_deleteIS5_EE11get_deleterEv
FN:426,_ZNSt10unique_ptrINSt7__cxx1118basic_stringstreamIcSt11char_traitsIcESaIcEEESt14default_deleteIS5_EE11get_deleterEv
FNDA:102,_ZNSt10unique_ptrINSt7__cxx1118basic_stringstreamIcSt11char_traitsIcESaIcEEESt14default_deleteIS5_EE11get_deleterEv
DA:79,0
DA:85,0
DA:86,0
DA:79,102
DA:85,102
DA:86,102
DA:154,78
DA:172,78
DA:172,204
DA:173,0
DA:174,0
DA:174,102
DA:269,78
DA:270,78
DA:271,78
DA:355,78
DA:359,78
DA:360,78
DA:361,0
DA:362,78
DA:363,78
DA:355,102
DA:359,102
DA:360,102
DA:361,102
DA:362,102
DA:363,102
DA:413,0
DA:416,0
DA:421,0
DA:422,0
DA:426,0
DA:427,0
DA:426,102
DA:427,102
end_of_record
SF:/usr/include/c++/11/bits/char_traits.h
FN:106,_ZN9__gnu_cxx11char_traitsIcE2eqERKcS3_
FNDA:0,_ZN9__gnu_cxx11char_traitsIcE2eqERKcS3_
FN:167,_ZN9__gnu_cxx11char_traitsIcE6lengthEPKc
FNDA:0,_ZN9__gnu_cxx11char_traitsIcE6lengthEPKc
FN:364,_ZNSt11char_traitsIcE2ltERKcS2_
FNDA:0,_ZNSt11char_traitsIcE2ltERKcS2_
FN:372,_ZNSt11char_traitsIcE7compareEPKcS2_m
FNDA:2,_ZNSt11char_traitsIcE7compareEPKcS2_m
FN:393,_ZNSt11char_traitsIcE6lengthEPKc
FNDA:267,_ZNSt11char_traitsIcE6lengthEPKc
FN:429,_ZNSt11char_traitsIcE4copyEPcPKcm
FNDA:0,_ZNSt11char_traitsIcE4copyEPcPKcm
DA:106,0
DA:107,0
DA:167,0
DA:170,0
DA:171,0
DA:172,0
DA:173,0
DA:290,267
DA:364,0
DA:367,0
DA:368,0
DA:372,2
DA:374,2
DA:375,0
DA:377,2
DA:379,2
DA:381,0
DA:382,0
DA:383,0
DA:384,0
DA:385,0
DA:386,0
DA:389,2
DA:393,267
DA:396,267
DA:397,0
DA:399,267
DA:429,0
DA:431,0
DA:432,0
DA:437,0
end_of_record
